         File DSK:STAT.PAS[31024,332221]   Compiled 15-Jun-82 14:36   Pascal, Version 2A(431)

         File DSK:STAT.PAS[31024,332221]   Compiled 15-Jun-82 14:36   Pascal, Version 2A(431)

         File DSK:STAT.PAS[31024,332221]   Compiled 15-Jun-82 14:36   Pascal, Version 2A(431)

         File DSK:STAT.PAS[31024,332221]   Compiled 15-Jun-82 14:36   Pascal, Version 2A(431)





				     $$$    $$$$$    $$$    $$$$$
				    $   $     $     $   $     $  
				    $         $     $   $     $  
				     $$$      $     $$$$$     $  
				        $     $     $   $     $  
				    $   $     $     $   $     $  
				     $$$      $     $   $     $  


				     DSK:STAT.PAS[31024,332221]


Options in effect: 

	CHECK, NOSPECIAL, NOMAP, NOSYMBOLS, NOCALLS, ASSEMBLY, NOXREF, TRACE, QBLOCKS, NOOPTIMIZE, 
	CODE, NODEBUG, FINISH, NOGLOBAL, NOMAINSEG, NOOVERLAY, AUTOQUICK, SOURCE, NOSTANDARD, 
	LENGTH (45), WIDTH (102), STORAGE (2048), ALLOC (0), ENABLE(M68)




         File DSK:STAT.PAS[31024,332221]   Compiled 15-Jun-82 14:36   Pascal, Version 2A(431)

         File DSK:STAT.PAS[31024,332221]   Compiled 15-Jun-82 14:36   Pascal, Version 2A(431)

         File DSK:STAT.PAS[31024,332221]   Compiled 15-Jun-82 14:36   Pascal, Version 2A(431)

         File DSK:STAT.PAS[31024,332221]   Compiled 15-Jun-82 14:36   Pascal, Version 2A(431)
         File DSK:STAT.PAS[31024,332221]   Compiled 15-Jun-82 14:36   Pascal, Version 2A(431)

         File DSK:STAT.PAS[31024,332221]   Compiled 15-Jun-82 14:36   Pascal, Version 2A(431)

         File DSK:STAT.PAS[31024,332221]   Compiled 15-Jun-82 14:36   Pascal, Version 2A(431)

         File DSK:STAT.PAS[31024,332221]   Compiled 15-Jun-82 14:36   Pascal, Version 2A(431)





				     $$$    $$$$$    $$$    $$$$$
				    $   $     $     $   $     $  
				    $         $     $   $     $  
				     $$$      $     $$$$$     $  
				        $     $     $   $     $  
				    $   $     $     $   $     $  
				     $$$      $     $   $     $  


				     DSK:STAT.PAS[31024,332221]


Options in effect: 

	CHECK, NOSPECIAL, NOMAP, NOSYMBOLS, NOCALLS, ASSEMBLY, NOXREF, TRACE, QBLOCKS, NOOPTIMIZE, 
	CODE, NODEBUG, FINISH, NOGLOBAL, NOMAINSEG, NOOVERLAY, AUTOQUICK, SOURCE, NOSTANDARD, 
	LENGTH (45), WIDTH (102), STORAGE (2048), ALLOC (0), ENABLE(M68)




         File DSK:STAT.PAS[31024,332221]   Compiled 15-Jun-82 14:36   Pascal, Version 2A(431)

         File DSK:STAT.PAS[31024,332221]   Compiled 15-Jun-82 14:36   Pascal, Version 2A(431)

         File DSK:STAT.PAS[31024,332221]   Compiled 15-Jun-82 14:36   Pascal, Version 2A(431)

         File DSK:STAT.PAS[31024,332221]   Compiled 15-Jun-82 14:36   Pascal, Version 2A(431)
MODULE  STAT         DSK:STAT.PAS[31024,332221]                                        15-Jun-82 14:36
SECTION 0                                                                                       PAGE 1

    1	program stat;
    2	
    3 *	$IF P10
    4 *	$SYSTEM pascal
    5 *	$SYSTEM pasfil
    6 *	$ENDIF
    7	
    8	const
    9 *	$IF P10  num_bytes = 4;
   10	$IF M68  num_bytes = 256;
   11	
   12	type
   13	  one_byte    = 0..2 ** 8 - 1;
   14	  two_bytes   = 0..2 ** 16 - 1;
   15	  three_bytes = 0..2 ** 24 - 1;
   16	  four_bytes  = 0..2 ** 32 - 1;
   17	  input_array   = packed array [1..num_bytes] of one_byte;
   18	  string_10 = string[10];
   19	  ESDID_range = 17..255;
   20	  ESDID_ptr = ^ESDID_link_record;
   21	  ESDID_link_record = record
   22	    link_next : ESDID_ptr;
   23	    link_name : string_10;
   24	    link_count : 0..maximum (integer);
   25	  end;
   26	  ESDID_array_record = record
   27	    array_name : string_10;
   28	    array_count : 0..maximum (integer);
   29	  end;
   30	
   31	var
   32	  eof_flag : boolean          (* end-of-file on input_file? *);
   33	  tty_flag : boolean          (* output to terminal or file? *);
   34	  id_flag : boolean           (* identification record encountered yet? *);
   35	  end_flag : boolean          (* end record encountered yet? *);
   36	  current_ESDID : ESDID_range (* ESDID count for XREF's *);
   37	  byte_ptr : integer          (* which byte of input_record to get next *);
   38	  byte_count : one_byte       (* number of bytes remaining in current logical record *);
   39	  input_record : input_array  (* current num_bytes bytes read in from the input file *);
   40	  input_file : file of input_array;
   41 *	$IF P10  output_file : file_block;
   42	$IF M68  output_file : text;MODULE  STAT         DSK:STAT.PAS[31024,332221]                                        15-Jun-82 14:36
SECTION 0                                                                                       PAGE 2

   43	  ESDID_array : array [ESDID_range] of ESDID_array_record;
   44	  ESDID_list_head : ESDID_ptr;MODULE  STAT         DSK:STAT.PAS[31024,332221]                                        15-Jun-82 14:36
SECTION 1            array_init                                                                 PAGE 3

    2	procedure array_init;
    3	
    4	begin
    5	  for current_ESDID := minimum (ESDID_range) to maximum (ESDID_range) do begin
    6	    with ESDID_array[current_ESDID] do begin
    7	      array_name := '';
    8	      array_count := 0;
    9	    end (* with ESDID_array[current_ESDID] *);
   10	  end (* for *);
   11	  current_ESDID := minimum (ESDID_range);
   12	end (* array_init *);MODULE  STAT         DSK:STAT.PAS[31024,332221]                                        15-Jun-82 14:36
SECTION 2            initialize                                                                 PAGE 4

    2	procedure initialize;
    3	
    4	begin
    5	  open (tty);
    6	  rewrite (tty);
    7	  eof_flag := false;
    8	  tty_flag := true;
    9	  id_flag := false;
   10	  end_flag := false;
   11	  byte_ptr := 1;
   12	  array_init;
   13	  new (ESDID_list_head);
   14	  with ESDID_list_head^ do begin
   15	    link_next := nil;
   16	    link_name := '';
   17	    link_count := 0;
   18	  end (* with ESDID_list_head *);
   19	end (* initialize *);MODULE  STAT         DSK:STAT.PAS[31024,332221]                                        15-Jun-82 14:36
SECTION 3            write_string                                                               PAGE 5

    2	procedure write_string (input_string : string[*]);
    3	
    4	begin
    5	  if tty_flag then
    6	    writeln (tty, input_string)
    7	  else
    8 *	$IF P10  fio_line (output_file, input_string);
    9	$IF M68  writeln (output_file, input_string);
   10	end (* write_string *);MODULE  STAT         DSK:STAT.PAS[31024,332221]                                        15-Jun-82 14:36
SECTION 4            convert_decimal                                                            PAGE 6

    2	function convert_decimal (input_number : integer) : string_10;
    3	
    4	begin
    5	  putstring (convert_decimal, input_number:0);
    6	end (* convert_decimal *);MODULE  STAT         DSK:STAT.PAS[31024,332221]                                        15-Jun-82 14:36
SECTION 5            page_skip                                                                  PAGE 7

    2	procedure page_skip;
    3	
    4	begin
    5 *	$IF P10  fio_page (output_file);
    6	$IF M68  page (output_file);
    7	end (* page_skip *);MODULE  STAT         DSK:STAT.PAS[31024,332221]                                        15-Jun-82 14:36
SECTION 6            write_header                                                               PAGE 8

    2 *	$IF P10
    3 *	procedure write_header (var fb : file_block);
    4 *	
    5 *	begin
    6 *	  fio_line (fb, 'M68000 Runtime call statistics for file: ' || 
    7 *	            filename (input_file) || 
    8 *	            '         Page ' || 
    9 *	            convert_decimal (fb.pageno));
   10 *	  fio_skip (fb);
   11 *	end (* write_header *);
   12 *	$ENDIFMODULE  STAT         DSK:STAT.PAS[31024,332221]                                        15-Jun-82 14:36
SECTION 7            warning                                                                    PAGE 9

    2	procedure warning (input_warning_message : string[*]);
    3	
    4	begin
    5	  writeln (tty, '*** Warning: ' || input_warning_message);
    6	  if not tty_flag then begin
    7	    page_skip;
    8	    write_string ('*** Warning: ' || input_warning_message);
    9	  end;
   10	end (* warning *);MODULE  STAT         DSK:STAT.PAS[31024,332221]                                        15-Jun-82 14:36
SECTION 8            error                                                                     PAGE 10

    2	procedure error (input_error_message : string[*]);
    3	
    4	begin
    5	  writeln (tty, '*** Error: ' || input_error_message);
    6	  if not tty_flag then begin
    7	    page_skip;
    8	    write_string ('*** Error: ' || input_error_message);
    9	  end;
   10	  stop;
   11	end (* error *);MODULE  STAT         DSK:STAT.PAS[31024,332221]                                        15-Jun-82 14:36
SECTION 9            check_flags                                                               PAGE 11

    2	procedure check_eof_flag;
    3	
    4	begin
    5	  if eof_flag then
    6	    error ('Unexpected EOF.');
    7	end (* check_eof_flag *);
    8	
    9	(* ------------------------------------------------------------ *)
   10	
   11	procedure check_id_flag;
   12	
   13	begin
   14	  if not id_flag then
   15	    warning ('Record encountered before Identification Record.');
   16	end (* check_id_flag *);
   17	
   18	(* ------------------------------------------------------------ *)
   19	
   20	procedure check_end_flag;
   21	
   22	begin
   23	  if end_flag then
   24	    warning ('Record encountered after End Record.');
   25	end (* check_end_flag *);MODULE  STAT         DSK:STAT.PAS[31024,332221]                                        15-Jun-82 14:36
SECTION 10           read_one_byte                                                             PAGE 12

    2	procedure read_one_byte (var output_one_byte : one_byte);
    3	
    4	var
    5	  local_counter : 1..num_bytes;
    6	
    7	begin
    8	  output_one_byte := input_record[byte_ptr];
    9	  byte_ptr := byte_ptr + 1;
   10	  if byte_ptr = num_bytes + 1 then begin
   11	    if eof (input_file) then begin
   12	      for local_counter := 1 to num_bytes do
   13	        input_record[local_counter] := 0;
   14	      eof_flag := true;
   15	    end
   16	    else
   17	      read (input_file, input_record);
   18	    byte_ptr := 1;
   19	  end;
   20	end (* read_one_byte *);MODULE  STAT         DSK:STAT.PAS[31024,332221]                                        15-Jun-82 14:36
SECTION 11           read_two_bytes                                                            PAGE 13

    2	procedure read_two_bytes (var output_two_bytes : two_bytes);
    3	
    4	var
    5	  local_one_byte : one_byte;
    6	
    7	begin
    8	  read_one_byte (local_one_byte);
    9	  check_eof_flag;
   10	  output_two_bytes := local_one_byte;
   11	  read_one_byte (local_one_byte);
   12	  check_eof_flag;
   13	  output_two_bytes := output_two_bytes * 256 + local_one_byte;
   14	end (* read_two_bytes *);MODULE  STAT         DSK:STAT.PAS[31024,332221]                                        15-Jun-82 14:36
SECTION 12           read_three_bytes                                                          PAGE 14

    2	procedure read_three_bytes (var output_three_bytes : three_bytes);
    3	
    4	var
    5	  local_counter : 1..2;
    6	  local_one_byte : one_byte;
    7	
    8	begin
    9	  read_one_byte (local_one_byte);
   10	  check_eof_flag;
   11	  output_three_bytes := local_one_byte;
   12	  for local_counter := 1 to 2 do begin
   13	    read_one_byte (local_one_byte);
   14	    check_eof_flag;
   15	    output_three_bytes := output_three_bytes * 256 + local_one_byte;
   16	  end;
   17	end (* read_three_bytes *);MODULE  STAT         DSK:STAT.PAS[31024,332221]                                        15-Jun-82 14:36
SECTION 13           read_four_bytes                                                           PAGE 15

    2	procedure read_four_bytes (var output_four_bytes : four_bytes);
    3	
    4	var
    5	  local_counter : 1..3;
    6	  local_one_byte : one_byte;
    7	
    8	begin
    9	  read_one_byte (local_one_byte);
   10	  check_eof_flag;
   11	  output_four_bytes := local_one_byte;
   12	  for local_counter := 1 to 3 do begin
   13	    read_one_byte (local_one_byte);
   14	    check_eof_flag;
   15	    output_four_bytes := output_four_bytes * 256 + local_one_byte;
   16	  end;
   17	end (* read_four_bytes *);MODULE  STAT         DSK:STAT.PAS[31024,332221]                                        15-Jun-82 14:36
SECTION 14           read_string                                                               PAGE 16

    2	procedure read_string (input_length : one_byte;
    3	                       var output_string : string[*]);
    4	
    5	var
    6	  local_counter : one_byte;
    7	  local_one_byte : one_byte;
    8	
    9	begin
   10	  output_string := '';
   11	  for local_counter := 1 to input_length do begin
   12	    read_one_byte (local_one_byte);
   13	    check_eof_flag;
   14	    if local_one_byte > ord (maximum (char)) then
   15	      local_one_byte := ord (' ');
   16	    output_string := output_string || chr (local_one_byte);
   17	  end;
   18	end (* read_string *);MODULE  STAT         DSK:STAT.PAS[31024,332221]                                        15-Jun-82 14:36
SECTION 15           process_identification_record                                             PAGE 17

    2	procedure process_identification_record;
    3	
    4	var
    5	  local_string : string[255];
    6	
    7	begin
    8	  read_string (byte_count - 1, local_string);
    9	  check_eof_flag;
   10	  id_flag := true;
   11	  end_flag := false;
   12	  array_init;
   13	end (* process_identification_record *);MODULE  STAT         DSK:STAT.PAS[31024,332221]                                        15-Jun-82 14:36
SECTION 16           process_ESD_record                                                        PAGE 18

    2	procedure process_ESD_record;
    3	
    4	var
    5	  local_one_byte : one_byte;
    6	  local_four_bytes : four_bytes;
    7	  local_string : string_10;
    8	
    9	begin
   10	  check_id_flag;
   11	  check_end_flag;
   12	  read_one_byte (local_one_byte);
   13	  check_eof_flag;
   14	  case local_one_byte div 16 of
   15	
   16	    2 : begin
   17	          read_four_bytes (local_four_bytes);
   18	        end;
   19	
   20	    4 : begin
   21	          read_string (10, local_string);
   22	          read_four_bytes (local_four_bytes);
   23	        end;
   24	
   25	    7 : begin
   26	          read_string (10, local_string);
   27	          ESDID_array[current_ESDID].array_name := local_string;
   28	          current_ESDID := current_ESDID + 1;
   29	        end;
   30	
   31	    others : error ('Illegal ESD record type.');
   32	
   33	  end (* case *);
   34	end (* process_ESD_record *);MODULE  STAT         DSK:STAT.PAS[31024,332221]                                        15-Jun-82 14:36
SECTION 17           get_bits                                                                  PAGE 19

    2	function get_bits (input_byte : one_byte;
    3	                   input_last_bit : 0..7;
    4	                   input_number_bits : 1..8) : one_byte;
    5	
    6	var
    7	  local_counter : 0..7;
    8	  local_bit : 0..1;
    9	  local_byte : one_byte;
   10	
   11	begin
   12	  get_bits := 0;
   13	  local_byte := input_byte;
   14	  for local_counter := 0 to 7 do begin
   15	    local_bit := local_byte mod 2;
   16	    local_byte := local_byte div 2;
   17	    if (local_counter >= input_last_bit) and
   18	       (local_counter < input_last_bit + input_number_bits) then
   19	      get_bits := get_bits + (local_bit * 2 ** (local_counter - input_last_bit));
   20	  end (* for *);
   21	end (* get_bits *);MODULE  STAT         DSK:STAT.PAS[31024,332221]                                        15-Jun-82 14:36
SECTION 18           decrement_check_byte_count                                                PAGE 20

    2	procedure decrement_check_byte_count (input_amount : integer);
    3	
    4	begin
    5	  byte_count := byte_count - input_amount;
    6	  if byte_count < 0 then
    7	    error ('Incorrect Text Record byte count.');
    8	end (* decrement_check_byte_count *);MODULE  STAT         DSK:STAT.PAS[31024,332221]                                        15-Jun-82 14:36
SECTION 19           process_absolute_code                                                     PAGE 21

    2	procedure process_absolute_code (input_counter : 0..32);
    3	
    4	var
    5	  local_two_bytes : two_bytes;
    6	
    7	begin
    8	  read_two_bytes (local_two_bytes);
    9	  decrement_check_byte_count (2);
   10	end (* process_absolute_code *);MODULE  STAT         DSK:STAT.PAS[31024,332221]                                        15-Jun-82 14:36
SECTION 20           process_relocation_data                                                   PAGE 22

    2	procedure process_relocation_data (input_counter : 0..32);
    3	
    4	var
    5	  local_counter : 0..7;
    6	  local_num_ESDID : 0..7;
    7	  local_offset_length : 0..4;
    8	  local_one_byte : one_byte;
    9	  local_two_bytes : two_bytes;
   10	  local_three_bytes : three_bytes;
   11	  local_four_bytes : four_bytes;
   12	
   13	begin
   14	  read_one_byte (local_one_byte);
   15	  check_eof_flag;
   16	  decrement_check_byte_count (1);
   17	  local_num_ESDID := get_bits (local_one_byte, 5, 3);
   18	  local_offset_length := get_bits (local_one_byte, 0, 3);
   19	  for local_counter := 1 to local_num_ESDID do begin
   20	    read_one_byte (local_one_byte);
   21	    check_eof_flag;
   22	    decrement_check_byte_count (1);
   23	    if loca_byte >= minimum (ESDID_range) then
   24	      ESDID_array[local_one_byte].array_count := 
   25	        ESDID_array[local_one_byte].array_count + 1;
   26	  end (* for *);
   27	  case local_offset_length of
   28	    0 : ;
   29	    1 : read_one_byte (local_one_byte);
   30	    2 : read_two_bytes (local_two_bytes);
   31	    3 : read_three_bytes (local_three_bytes);
   32	    4 : read_four_bytes (local_four_bytes);
   33	  end (* case *);
   34	  decrement_check_byte_count (local_offset_length);
   35	end (* process_relocation_data *);MODULE  STAT         DSK:STAT.PAS[31024,332221]                                        15-Jun-82 14:36
SECTION 21           process_text_record                                                       PAGE 23

    2	procedure process_text_record;
    3	
    4	var
    5	  local_counter : 0..32;
    6	  local_map : array [1..4] of one_byte;
    7	  local_ESDID : one_byte;
    8	
    9	begin
   10	  check_id_flag;
   11	  check_end_flag;
   12	  decrement_check_byte_count (1);
   13	  for local_counter := 1 to 4 do begin
   14	    read_one_byte (local_map[local_counter]);
   15	    check_eof_flag;
   16	    decrement_check_byte_count (1);
   17	  end (* for *);
   18	  read_one_byte (local_ESDID);
   19	  check_eof_flag;
   20	  decrement_check_byte_count (1);
   21	  local_counter := 0;
   22	  while (local_counter < 32) and
   23	         (byte_count > 0) do begin
   24	    if get_bits (local_map[ (local_counter div 8) + 1], 
   25	                 7 - (local_counter mod 8), 1) = 0 then
   26	      process_absolute_code (local_counter)
   27	    else
   28	      process_relocation_data (local_counter);
   29	    local_counter := local_counter + 1;
   30	  end (* while *);
   31	  if byte_count <> 0 then
   32	    error ('Incorrect Text Record byte count.');
   33	end (* process_text_record *);MODULE  STAT         DSK:STAT.PAS[31024,332221]                                        15-Jun-82 14:36
SECTION 22           add_ESDID_link                                                            PAGE 24

    2	procedure add_ESDID_link;
    3	
    4	var
    5	  local_index : ESDID_range;
    6	  local_prev_ptr : ESDID_ptr;
    7	  local_curr_ptr : ESDID_ptr;
    8	
    9	begin
   10	  local_index := minimum (ESDID_range);
   11	  while (local_index < current_ESDID) andif
   12	        (ESDID_array[local_index].array_name <> '') do begin
   13	    local_prev_ptr := ESDID_list_head;
   14	    local_curr_ptr := local_prev_ptr^.link_next;
   15	    while (local_curr_ptr <> nil) andif
   16	          (local_curr_ptr^.link_name < ESDID_array[local_index].array_name) do begin
   17	      local_prev_ptr := local_curr_ptr;
   18	      local_curr_ptr := local_prev_ptr^.link_next;
   19	    end (* inner while *);
   20	    if local_curr_ptr = nil then begin
   21	      new (local_curr_ptr);
   22	      with local_curr_ptr^, ESDID_array[local_index] do begin
   23	        link_next := nil;
   24	        link_name := array_name;
   25	        link_count := array_count;
   26	      end (* with local_curr_ptr^, ESDID_array[local_index] *);
   27	      local_prev_ptr^.link_next := local_curr_ptr;
   28	    end
   29	    else begin
   30	      if local_curr_ptr^.link_name = ESDID_array[local_index].array_name then
   31	        local_curr_ptr^.link_count := 
   32	          local_curr_ptr^.link_count + ESDID_array[local_index].array_count
   33	      else begin
   34	        new (local_curr_ptr);
   35	        with local_curr_ptr^, ESDID_array[local_index] do begin
   36	          link_next := local_prev_ptr^.link_next;
   37	          link_name := array_name;
   38	          link_count := array_count;
   39	        end (* with local_curr_ptr^, ESDID_array[local_index] *);
   40	        local_prev_ptr^.link_next := local_curr_ptr;
   41	      end (* inner else *);
   42	    end (* outer else *);
   43	    local_index := local_index + 1;MODULE  STAT         DSK:STAT.PAS[31024,332221]                                        15-Jun-82 14:36
SECTION 22           add_ESDID_link                                                            PAGE 25

   44	  end (* outer while *);
   45	end (* add_ESDID_link *);MODULE  STAT         DSK:STAT.PAS[31024,332221]                                        15-Jun-82 14:36
SECTION 23           process_end_record                                                        PAGE 26

    2	procedure process_end_record;
    3	
    4	var
    5	  local_one_byte : one_byte;
    6	  local_four_bytes : four_bytes;
    7	
    8	begin
    9	  check_id_flag;
   10	  read_one_byte (local_one_byte);
   11	  check_eof_flag;
   12	  if local_one_byte < 17 then
   13	    read_four_bytes (local_four_bytes);
   14	  end_flag := true;
   15	  add_ESDID_link;
   16	end (* process_end_record *);MODULE  STAT         DSK:STAT.PAS[31024,332221]                                        15-Jun-82 14:36
SECTION 24           process_input                                                             PAGE 27

    2	procedure process_input;
    3	
    4	var
    5	  local_one_byte : one_byte;
    6	
    7	begin
    8	  read_one_byte (byte_count);
    9	  while not eof_flag do begin
   10	    if byte_count > 0 then begin
   11	      read_one_byte (local_one_byte);
   12	      check_eof_flag;
   13	      case local_one_byte of
   14	        ord ('1') : process_identification_record;
   15	        ord ('2') : process_ESD_record;
   16	        ord ('3') : process_text_record;
   17	        ord ('4') : process_end_record;
   18	        others    : error ('Illegal record type.');
   19	      end (* case *);
   20	    end (* if *);
   21	    read_one_byte (byte_count);
   22	  end (* while *);
   23	  if not id_flag then
   24	    warning ('Missing Identification Record.');
   25	  if not end_flag then
   26	    warning ('Missing End Record.');
   27	end (* process_input *);MODULE  STAT         DSK:STAT.PAS[31024,332221]                                        15-Jun-82 14:36
SECTION 25           print_ESDID_statistics                                                    PAGE 28

    2	procedure print_ESDID_statistics;
    3	
    4	var
    5	  local_ptr : ESDID_ptr;
    6	  local_num_names : integer;
    7	  local_num_calls : integer;
    8	
    9	begin
   10	  write_string ('Runtime Statistics:');
   11	  write_string ('');
   12	  write_string ('Name        Calls');
   13	  write_string ('----------  -----');
   14	  write_string ('');
   15	  local_num_names := 0;
   16	  local_num_calls := 0;
   17	  local_ptr := ESDID_list_head^.link_next;
   18	  while local_ptr <> nil do begin
   19	    with local_ptr^ do begin
   20	      write_string (link_name || '  ' || convert_decimal (link_count));
   21	      local_num_names := local_num_names + 1;
   22	      local_num_calls := local_num_calls + link_count;
   23	    end (* with local_ptr^ *);
   24	    local_ptr := local_ptr^.link_next;
   25	  end (* while *);
   26	  write_string ('');
   27	  write_string ('');
   28	  write_string ('Total number of names = ' || convert_decimal (local_num_names));
   29	  write_string ('Total number of calls = ' || convert_decimal (local_num_calls));
   30	  write_string ('Average calls/name = ' ||
   31	                convert_decimal (local_num_calls div local_num_names));
   32	end (* print_ESDID_statistics *);MODULE  STAT         DSK:STAT.PAS[31024,332221]                                        15-Jun-82 14:36
SECTION 26           get_file_names                                                            PAGE 29

    2	procedure get_file_names;
    3	
    4	var
    5	  input_file_name : file_name;
    6	  output_file_name : file_name;
    7	
    8	begin
    9	  writeln (tty, 'M68000 Runtime call statistics program, Version 1.0');
   10	  write (tty, 'Input file: ');
   11	  break (tty);
   12	  readln (tty);
   13	  read (tty, input_file_name);
   14	  if input_file_name = '' then
   15	    stop;  (* <--- No input file *)
   16	  reset (input_file, '.RO ' || input_file_name, [retry]);
   17	  if iostatus (input_file) <> io_ok then
   18	    error ('Bad input file.');
   19	  write (tty, 'Output file: ');
   20	  break (tty);
   21	  readln (tty);
   22	  read (tty, output_file_name);
   23	  if output_file_name <> ' ' then begin
   24 *	$IF P10  fio_open (output_file, '.LS ' || output_file_name);
   25	$IF M68  rewrite (output_file, '.LS ' || output_file_name);
   26	    if iostatus <> io_ok then
   27	      error ('Bad output file.');
   28	    tty_flag := false;
   29 *	$IF P10
   30 *	    with output_file do begin
   31 *	      page_header := write_header;
   32 *	      width := 120;
   33 *	      plength := 42;
   34 *	    end (* with output_file *);
   35 *	    page_skip;
   36 *	$ENDIF
   37	$IF M68
   38	    write_string ('M68000 Runtime call statistics for file: ' ||
   39	                  filename (input_file));
   40	    write_string ('');
   41	$ENDIF
   42	  end;
   43	  read (input_file, input_record);MODULE  STAT         DSK:STAT.PAS[31024,332221]                                        15-Jun-82 14:36
SECTION 26           get_file_names                                                            PAGE 30

   44	end (* get_file_names *);MODULE  STAT         DSK:STAT.PAS[31024,332221]                                        15-Jun-82 14:36
SECTION 27           main                                                                      PAGE 31

    2	begin
    3	  initialize;
    4	  get_file_names;
    5	  process_input;
    6	  print_ESDID_statistics;
    7	end.

File   level   on page     name

  0	 0	    1	DSK:STAT.PAS[31024,332221]



Section   in file   on page     title

    22	      0	        24    add_ESDID_link
     1	      0	         3    array_init
     9	      0	        11    check_flags
     4	      0	         6    convert_decimal
    18	      0	        20    decrement_check_byte_count
     8	      0	        10    error
    17	      0	        19    get_bits
    26	      0	        29    get_file_names
     2	      0	         4    initialize
    27	      0	        31    main
     5	      0	         7    page_skip
    25	      0	        28    print_ESDID_statistics
    19	      0	        21    process_absolute_code
    23	      0	        26    process_end_record
    16	      0	        18    process_ESD_record
    15	      0	        17    process_identification_record
    24	      0	        27    process_input
    20	      0	        22    process_relocation_data
    21	      0	        23    process_text_record
    13	      0	        15    read_four_bytes
    10	      0	        12    read_one_byte
    14	      0	        16    read_string
    12	      0	        14    read_three_bytes
    11	      0	        13    read_two_bytes
     7	      0	         9    warning
     6	      0	         8    write_header
     3	      0	         5    write_string
                                                                                                                                                                                                                                                                                                                                                                                                                                                                                                                                                                                                         		      STAT       IDNT	   0,0
		      *
		      *		 MC68000 Checkout Code Generator,  Jun 15, 1982  02:36:52 pm
		      *
	 00000002		 SECTION   2
	 00000000     STATIC.	 EQU	   *
	 0000000A		 SECTION   10
	 00000000     CODE.	 EQU	   *
00000000 C13E6EEF     C.1	 DC.L	   $C13E6EEF			       Date-time
00000004 0000			 DC.W	   0				         $0
00000006 535441542020		 DC.B	   'STAT  '
	 00000002		 SECTION   2
		      *
		      *		 Initialized static area
		      *
		      *
		      *		 Condition cells
		      *
		      *
		      *		 Unitialized static area
		      *
00000000 0000100C		 DS.B	   4108
	 0000000A		 SECTION   10
		      *
		      *		 Begin subroutine ARRAY_INIT
		      *
0000000C	      B.3
		      *							       LINE 1/4
		      *							       LINE 1/5
0000000C	      L.3.1
0000000C 7011	      L.3.2	 MOVEQ	   #17,D0			         $11
0000000E 2B400004		 MOVE.L	   D0,STATIC.+4(A5)		         CURRENT_ESDID
00000012	      L.3.3
		      *							       LINE 1/5 (2)
		      *							       LINE 1/6
00000012 202D0004     L.3.4	 MOVE.L	   STATIC.+4(A5),D0		         CURRENT_ESDID
00000016 E940			 ASL.W	   #4,D0			         $4
00000018 41ED0008		 LEA	   STATIC.+280-272(A5),A0	         ESDID_ARRAY
0000001C 43F00000		 LEA	   0(A0,D0.W),A1		         $0
00000020 2D49FED2		 MOVE.L	   A1,X.3.2(A6)
		      *							       LINE 1/6 (2)
		      *							       LINE 1/7
00000024 206EFED2     L.3.5	 MOVEA.L   X.3.2(A6),A0
00000028 4250			 CLR.W	   (A0)
		      *							       LINE 1/80000002A 206EFED2		 MOVEA.L   X.3.2(A6),A0
0000002E 7000			 MOVEQ	   #0,D0			         $0
00000030 2140000C		 MOVE.L	   D0,12(A0)			         $C
		      *							       LINE 1/9
00000034 206EFED2		 MOVEA.L   X.3.2(A6),A0
		      *							       LINE 1/10
00000038 202D0004		 MOVE.L	   STATIC.+4(A5),D0		         CURRENT_ESDID
0000003C 5280			 ADDQ.L	   #1,D0			         $1
0000003E 2B400004		 MOVE.L	   D0,STATIC.+4(A5)		         CURRENT_ESDID
00000042 0C80000000FF		 CMPI.L	   #255,D0			         $FF
00000048 6FC8			 BLE.S	   L.3.3(PC)
		      *							       LINE 1/11
0000004A 7011	      L.3.6	 MOVEQ	   #17,D0			         $11
0000004C 2B400004		 MOVE.L	   D0,STATIC.+4(A5)		         CURRENT_ESDID
		      *							       LINE 1/12
00000050 4E75			 RTS	   
00000052 23434E	      K.1	 DC.B	   '#CN'
00000055 00000001		 DS.B	   1
00000056 23434E	      K.2	 DC.B	   '#CN'
00000059 00000001		 DS.B	   1
		      *
		      *		 Begin subroutine INITIALIZE
		      *
0000005A	      B.4
		      *							       LINE 2/4
		      *							       LINE 2/5
0000005A 487AFFF6     L.4.1	 PEA	   K.1(PC)			         CODE.+$52
0000005E 7003			 MOVEQ	   #3,D0			         $3
00000060 3F00			 MOVE.W	   D0,-(A7)
00000062 7031			 MOVEQ	   #49,D0			         $31
00000064 3F00			 MOVE.W	   D0,-(A7)
00000066 4EB900000000		 JSR	   T.OPEN
0000006C 2B5F0000		 MOVE.L	   (A7)+,TTY(A5)		         TTY
		      *							       LINE 2/6
00000070 487AFFE4		 PEA	   K.2(PC)			         CODE.+$56
00000074 7003			 MOVEQ	   #3,D0			         $3
00000076 3F00			 MOVE.W	   D0,-(A7)
00000078 7032			 MOVEQ	   #50,D0			         $32
0000007A 3F00			 MOVE.W	   D0,-(A7)
0000007C 4EB900000000		 JSR	   T.REWRIT
00000082 2B5F0000		 MOVE.L	   (A7)+,TTYOUTPUT(A5)		         TTYOUTPUT
		      *							       LINE 2/7
00000086 7000			 MOVEQ	   #0,D0			         $0
00000088 1B400000		 MOVE.B	   D0,STATIC.+0(A5)		         EOF_FLAG
		      *							       LINE 2/80000008C 7001			 MOVEQ	   #1,D0			         $1
0000008E 1B400001		 MOVE.B	   D0,STATIC.+1(A5)		         TTY_FLAG
		      *							       LINE 2/9
00000092 7000			 MOVEQ	   #0,D0			         $0
00000094 1B400002		 MOVE.B	   D0,STATIC.+2(A5)		         ID_FLAG
		      *							       LINE 2/10
00000098 7000			 MOVEQ	   #0,D0			         $0
0000009A 1B400003		 MOVE.B	   D0,STATIC.+3(A5)		         END_FLAG
		      *							       LINE 2/11
0000009E 7001			 MOVEQ	   #1,D0			         $1
000000A0 2B400008		 MOVE.L	   D0,STATIC.+8(A5)		         BYTE_PTR
		      *							       LINE 2/12
000000A4 6100FF66		 BSR.L	   B.3(PC)			         ARRAY_INIT = CODE.+$C
		      *							       LINE 2/13
000000A8 7014			 MOVEQ	   #20,D0			         $14
000000AA 2F00			 MOVE.L	   D0,-(A7)
000000AC 4EB900000000		 JSR	   H.NEW
000000B2 2B5F1008		 MOVE.L	   (A7)+,STATIC.+4104(A5)	         ESDID_LIST_HEAD
		      *							       LINE 2/14
000000B6 202D1008		 MOVE.L	   STATIC.+4104(A5),D0		         ESDID_LIST_HEAD
000000BA 4A80			 TST.L	   D0
000000BC 6606			 BNE.S	   X.4.3(PC)
000000BE 4EB900000000		 JSR	   E.PTR
000000C4 2040	      X.4.3	 MOVEA.L   D0,A0
000000C6 2D48FECE		 MOVE.L	   A0,X.4.2(A6)
		      *							       LINE 2/14 (2)
		      *							       LINE 2/15
000000CA 206EFECE     L.4.2	 MOVEA.L   X.4.2(A6),A0
000000CE 7000			 MOVEQ	   #0,D0			         $0
000000D0 2080			 MOVE.L	   D0,(A0)
		      *							       LINE 2/16
000000D2 206EFECE		 MOVEA.L   X.4.2(A6),A0
000000D6 42680004		 CLR.W	   4(A0)			         $4
		      *							       LINE 2/17
000000DA 206EFECE		 MOVEA.L   X.4.2(A6),A0
000000DE 7000			 MOVEQ	   #0,D0			         $0
000000E0 21400010		 MOVE.L	   D0,16(A0)			         $10
		      *							       LINE 2/18
000000E4 206EFECE		 MOVEA.L   X.4.2(A6),A0
		      *							       LINE 2/19
000000E8 4E75			 RTS	   
		      *
		      *		 Begin subroutine WRITE_STRING
		      *
000000EA	      B.5		      *							       LINE 3/4
		      *							       LINE 3/5
000000EA 4A2D0001     L.5.1	 TST.B	   STATIC.+1(A5)		         TTY_FLAG
000000EE 672E			 BEQ.S	   L.5.3(PC)
		      *							       LINE 3/6
000000F0 202D0000     L.5.2	 MOVE.L	   TTYOUTPUT(A5),D0		         TTYOUTPUT
000000F4 4A80			 TST.L	   D0
000000F6 6606			 BNE.S	   X.5.3(PC)
000000F8 4EB900000000		 JSR	   E.FILE
000000FE 206EFFF6     X.5.3	 MOVEA.L   -10(A6),A0			         INPUT_STRING
00000102 3F10			 MOVE.W	   (A0),-(A7)
00000104 7203			 MOVEQ	   #3,D1			         $3
00000106 3F01			 MOVE.W	   D1,-(A7)
00000108 48680002		 PEA	   2(A0)			         $2
0000010C 2F00			 MOVE.L	   D0,-(A7)
0000010E 4EB900000000		 JSR	   T.WRITE
00000114 2F00			 MOVE.L	   D0,-(A7)
00000116 4EB900000000		 JSR	   T.WRTLN
0000011C 602C			 BRA.S	   L.5.4(PC)
		      *							       LINE 3/9
0000011E 202D0114     L.5.3	 MOVE.L	   STATIC.+276(A5),D0		         OUTPUT_FILE
00000122 4A80			 TST.L	   D0
00000124 6606			 BNE.S	   X.5.4(PC)
00000126 4EB900000000		 JSR	   E.FILE
0000012C 206EFFF6     X.5.4	 MOVEA.L   -10(A6),A0			         INPUT_STRING
00000130 3F10			 MOVE.W	   (A0),-(A7)
00000132 7203			 MOVEQ	   #3,D1			         $3
00000134 3F01			 MOVE.W	   D1,-(A7)
00000136 48680002		 PEA	   2(A0)			         $2
0000013A 2F00			 MOVE.L	   D0,-(A7)
0000013C 4EB900000000		 JSR	   T.WRITE
00000142 2F00			 MOVE.L	   D0,-(A7)
00000144 4EB900000000		 JSR	   T.WRTLN
		      *							       LINE 3/10
0000014A 4E75	      L.5.4	 RTS	   
		      *
		      *		 Begin subroutine PAGE_SKIP
		      *
0000014C	      B.7
		      *							       LINE 5/4
		      *							       LINE 5/6
0000014C 202D0114     L.7.1	 MOVE.L	   STATIC.+276(A5),D0		         OUTPUT_FILE
00000150 4A80			 TST.L	   D0
00000152 6606			 BNE.S	   X.7.3(PC)
00000154 4EB900000000		 JSR	   E.FILE0000015A 2F00	      X.7.3	 MOVE.L	   D0,-(A7)
0000015C 4EB900000000		 JSR	   T.PAGE
		      *							       LINE 5/7
00000162 4E75			 RTS	   
00000164 2A2A2A205761 K.3	 DC.B	   '*** Warning: '
00000171 00000001		 DS.B	   1
00000172 2A2A2A205761 K.4	 DC.B	   '*** Warning: '
0000017F 00000001		 DS.B	   1
		      *
		      *		 Begin subroutine WARNING
		      *
00000180 2D4FFEC6     B.8	 MOVE.L	   A7,X.8.1(A6)
		      *							       LINE 7/4
		      *							       LINE 7/5
00000184 202D0000     L.8.1	 MOVE.L	   TTYOUTPUT(A5),D0		         TTYOUTPUT
00000188 4A80			 TST.L	   D0
0000018A 6606			 BNE.S	   X.8.3(PC)
0000018C 4EB900000000		 JSR	   E.FILE
00000192 206EFFDA     X.8.3	 MOVEA.L   -38(A6),A0			         INPUT_WARNING_MESSAG
00000196 3210			 MOVE.W	   (A0),D1
00000198 D27C000D		 ADD.W	   #13,D1			         $D
0000019C 4841			 SWAP	   D1
0000019E 4241			 CLR.W	   D1
000001A0 4841			 SWAP	   D1
000001A2 2F01			 MOVE.L	   D1,-(A7)
000001A4 4EB900000000		 JSR	   M.DYNTMB
000001AA 224F			 MOVEA.L   A7,A1
000001AC 4851			 PEA	   (A1)
000001AE 3F01			 MOVE.W	   D1,-(A7)
000001B0 487AFFB2		 PEA	   K.3(PC)			         CODE.+$164
000001B4 740D			 MOVEQ	   #13,D2			         $D
000001B6 3F02			 MOVE.W	   D2,-(A7)
000001B8 4EB900000000		 JSR	   C.MVFF
000001BE 48680002		 PEA	   2(A0)			         $2
000001C2 3F10			 MOVE.W	   (A0),-(A7)
000001C4 4EB900000000		 JSR	   C.MVFR
000001CA 3F01			 MOVE.W	   D1,-(A7)
000001CC 7404			 MOVEQ	   #4,D2			         $4
000001CE 3F02			 MOVE.W	   D2,-(A7)
000001D0 4851			 PEA	   (A1)
000001D2 2F00			 MOVE.L	   D0,-(A7)
000001D4 4EB900000000		 JSR	   T.WRITE
000001DA 2F00			 MOVE.L	   D0,-(A7)
000001DC 4EB900000000		 JSR	   T.WRTLN
		      *							       LINE 7/6000001E2 4A2D0001		 TST.B	   STATIC.+1(A5)		         TTY_FLAG
000001E6 6672			 BNE.S	   L.8.3(PC)
000001E8 2E6EFEC6     L.8.2	 MOVEA.L   X.8.1(A6),A7
		      *							       LINE 7/6 (2)
		      *							       LINE 7/7
000001EC 6100FF5E		 BSR.L	   B.7(PC)			         PAGE_SKIP = CODE.+$14
		      *							       LINE 7/8
000001F0 206EFFDA		 MOVEA.L   -38(A6),A0			         INPUT_WARNING_MESSAG
000001F4 3010			 MOVE.W	   (A0),D0
000001F6 D07C000D		 ADD.W	   #13,D0			         $D
000001FA 4840			 SWAP	   D0
000001FC 4240			 CLR.W	   D0
000001FE 4840			 SWAP	   D0
00000200 2F00			 MOVE.L	   D0,-(A7)
00000202 4EB900000000		 JSR	   M.DYNTMB
00000208 224F			 MOVEA.L   A7,A1
0000020A 4851			 PEA	   (A1)
0000020C 3F00			 MOVE.W	   D0,-(A7)
0000020E 487AFF62		 PEA	   K.4(PC)			         CODE.+$172
00000212 720D			 MOVEQ	   #13,D1			         $D
00000214 3F01			 MOVE.W	   D1,-(A7)
00000216 4EB900000000		 JSR	   C.MVFF
0000021C 48680002		 PEA	   2(A0)			         $2
00000220 3F10			 MOVE.W	   (A0),-(A7)
00000222 4EB900000000		 JSR	   C.MVFR
00000228 3200			 MOVE.W	   D0,D1
0000022A 5441			 ADDQ.W	   #2,D1			         $2
0000022C 4841			 SWAP	   D1
0000022E 4241			 CLR.W	   D1
00000230 4841			 SWAP	   D1
00000232 2F01			 MOVE.L	   D1,-(A7)
00000234 4EB900000000		 JSR	   M.DYNTMB
0000023A 204F			 MOVEA.L   A7,A0
0000023C 3080			 MOVE.W	   D0,(A0)
0000023E 48680002		 PEA	   2(A0)			         $2
00000242 3F10			 MOVE.W	   (A0),-(A7)
00000244 4851			 PEA	   (A1)
00000246 3F00			 MOVE.W	   D0,-(A7)
00000248 4EB900000000		 JSR	   C.MVFF
0000024E 2D48FFF6		 MOVE.L	   A0,-10(A6)			         $FFFFFFF6
00000252 3D40FFF4		 MOVE.W	   D0,-12(A6)			         $FFFFFFF4
00000256 6100FE92		 BSR.L	   B.5(PC)			         WRITE_STRING = CODE.+
0000025A 2E6EFEC6     L.8.3	 MOVEA.L   X.8.1(A6),A7
		      *							       LINE 7/9
		      *							       LINE 7/100000025E 4E75			 RTS	   
00000260 2A2A2A204572 K.5	 DC.B	   '*** Error: '
0000026B 00000001		 DS.B	   1
0000026C 2A2A2A204572 K.6	 DC.B	   '*** Error: '
00000277 00000001		 DS.B	   1
		      *
		      *		 Begin subroutine ERROR
		      *
00000278 2D4FFEC6     B.9	 MOVE.L	   A7,X.9.1(A6)
		      *							       LINE 8/4
		      *							       LINE 8/5
0000027C 202D0000     L.9.1	 MOVE.L	   TTYOUTPUT(A5),D0		         TTYOUTPUT
00000280 4A80			 TST.L	   D0
00000282 6606			 BNE.S	   X.9.3(PC)
00000284 4EB900000000		 JSR	   E.FILE
0000028A 206EFFFC     X.9.3	 MOVEA.L   -4(A6),A0			         INPUT_ERROR_MESSAGE
0000028E 3210			 MOVE.W	   (A0),D1
00000290 D27C000B		 ADD.W	   #11,D1			         $B
00000294 4841			 SWAP	   D1
00000296 4241			 CLR.W	   D1
00000298 4841			 SWAP	   D1
0000029A 2F01			 MOVE.L	   D1,-(A7)
0000029C 4EB900000000		 JSR	   M.DYNTMB
000002A2 224F			 MOVEA.L   A7,A1
000002A4 4851			 PEA	   (A1)
000002A6 3F01			 MOVE.W	   D1,-(A7)
000002A8 487AFFB6		 PEA	   K.5(PC)			         CODE.+$260
000002AC 740B			 MOVEQ	   #11,D2			         $B
000002AE 3F02			 MOVE.W	   D2,-(A7)
000002B0 4EB900000000		 JSR	   C.MVFF
000002B6 48680002		 PEA	   2(A0)			         $2
000002BA 3F10			 MOVE.W	   (A0),-(A7)
000002BC 4EB900000000		 JSR	   C.MVFR
000002C2 3F01			 MOVE.W	   D1,-(A7)
000002C4 7404			 MOVEQ	   #4,D2			         $4
000002C6 3F02			 MOVE.W	   D2,-(A7)
000002C8 4851			 PEA	   (A1)
000002CA 2F00			 MOVE.L	   D0,-(A7)
000002CC 4EB900000000		 JSR	   T.WRITE
000002D2 2F00			 MOVE.L	   D0,-(A7)
000002D4 4EB900000000		 JSR	   T.WRTLN
		      *							       LINE 8/6
000002DA 4A2D0001		 TST.B	   STATIC.+1(A5)		         TTY_FLAG
000002DE 6672			 BNE.S	   L.9.3(PC)
000002E0 2E6EFEC6     L.9.2	 MOVEA.L   X.9.1(A6),A7		      *							       LINE 8/6 (2)
		      *							       LINE 8/7
000002E4 6100FE66		 BSR.L	   B.7(PC)			         PAGE_SKIP = CODE.+$14
		      *							       LINE 8/8
000002E8 206EFFFC		 MOVEA.L   -4(A6),A0			         INPUT_ERROR_MESSAGE
000002EC 3010			 MOVE.W	   (A0),D0
000002EE D07C000B		 ADD.W	   #11,D0			         $B
000002F2 4840			 SWAP	   D0
000002F4 4240			 CLR.W	   D0
000002F6 4840			 SWAP	   D0
000002F8 2F00			 MOVE.L	   D0,-(A7)
000002FA 4EB900000000		 JSR	   M.DYNTMB
00000300 224F			 MOVEA.L   A7,A1
00000302 4851			 PEA	   (A1)
00000304 3F00			 MOVE.W	   D0,-(A7)
00000306 487AFF64		 PEA	   K.6(PC)			         CODE.+$26C
0000030A 720B			 MOVEQ	   #11,D1			         $B
0000030C 3F01			 MOVE.W	   D1,-(A7)
0000030E 4EB900000000		 JSR	   C.MVFF
00000314 48680002		 PEA	   2(A0)			         $2
00000318 3F10			 MOVE.W	   (A0),-(A7)
0000031A 4EB900000000		 JSR	   C.MVFR
00000320 3200			 MOVE.W	   D0,D1
00000322 5441			 ADDQ.W	   #2,D1			         $2
00000324 4841			 SWAP	   D1
00000326 4241			 CLR.W	   D1
00000328 4841			 SWAP	   D1
0000032A 2F01			 MOVE.L	   D1,-(A7)
0000032C 4EB900000000		 JSR	   M.DYNTMB
00000332 204F			 MOVEA.L   A7,A0
00000334 3080			 MOVE.W	   D0,(A0)
00000336 48680002		 PEA	   2(A0)			         $2
0000033A 3F10			 MOVE.W	   (A0),-(A7)
0000033C 4851			 PEA	   (A1)
0000033E 3F00			 MOVE.W	   D0,-(A7)
00000340 4EB900000000		 JSR	   C.MVFF
00000346 2D48FFF6		 MOVE.L	   A0,-10(A6)			         $FFFFFFF6
0000034A 3D40FFF4		 MOVE.W	   D0,-12(A6)			         $FFFFFFF4
0000034E 6100FD9A		 BSR.L	   B.5(PC)			         WRITE_STRING = CODE.+
00000352 2E6EFEC6     L.9.3	 MOVEA.L   X.9.1(A6),A7
		      *							       LINE 8/9
		      *							       LINE 8/10
00000356 4EB900000000		 JSR	   M.STOP
0000035C 556E65787065 K.7	 DC.B	   'Unexpected EOF.'
0000036B 00000001		 DS.B	   1		      *
		      *		 Begin subroutine CHECK_EOF_FLAG
		      *
0000036C	      B.10
		      *							       LINE 9/4
		      *							       LINE 9/5
0000036C 4A2D0000     L.10.1	 TST.B	   STATIC.+0(A5)		         EOF_FLAG
00000370 672E			 BEQ.S	   L.10.3(PC)
		      *							       LINE 9/6
00000372 3D7C000FFEB4 L.10.2	 MOVE.W	   #15,-332(A6)			         $F  $FFFFFEB4
00000378 486EFEB6		 PEA	   -330(A6)			         $FFFFFEB6
0000037C 3F2EFEB4		 MOVE.W	   -332(A6),-(A7)		         $FFFFFEB4
00000380 487AFFDA		 PEA	   K.7(PC)			         CODE.+$35C
00000384 700F			 MOVEQ	   #15,D0			         $F
00000386 3F00			 MOVE.W	   D0,-(A7)
00000388 4EB900000000		 JSR	   C.MVFF
0000038E 41EEFEB4		 LEA	   -332(A6),A0			         $FFFFFEB4
00000392 2D48FFFC		 MOVE.L	   A0,-4(A6)			         $FFFFFFFC
00000396 3D7C000FFFFA		 MOVE.W	   #15,-6(A6)			         $F  $FFFFFFFA
0000039C 6100FEDA		 BSR.L	   B.9(PC)			         ERROR = CODE.+$278
		      *							       LINE 9/7
000003A0 4E75	      L.10.3	 RTS	   
		      *
		      *		 Begin subroutine READ_ONE_BYTE
		      *
000003A2	      B.13
		      *							       LINE 10/7
		      *							       LINE 10/8
000003A2 206EFFDE     L.13.1	 MOVEA.L   -34(A6),A0			         OUTPUT_ONE_BYTE
000003A6 202D0008		 MOVE.L	   STATIC.+8(A5),D0		         BYTE_PTR
000003AA 4A80			 TST.L	   D0
000003AC 6E06			 BGT.S	   X.13.3(PC)
000003AE 4EB900000000 X.13.4	 JSR	   E.INDEX
000003B4 0C8000000100 X.13.3	 CMPI.L	   #256,D0			         $100
000003BA 6EF2			 BGT.S	   X.13.4(PC)
000003BC 43ED000F		 LEA	   STATIC.+16-1(A5),A1		         INPUT_RECORD
000003C0 10310800		 MOVE.B	   0(A1,D0.L),D0		         $0
000003C4 C07C00FF		 AND.W	   #255,D0			         $FF
000003C8 48C0			 EXT.L	   D0
000003CA 2080			 MOVE.L	   D0,(A0)
		      *							       LINE 10/9
000003CC 202D0008		 MOVE.L	   STATIC.+8(A5),D0		         BYTE_PTR
000003D0 5280			 ADDQ.L	   #1,D0			         $1
000003D2 2B400008		 MOVE.L	   D0,STATIC.+8(A5)		         BYTE_PTR
		      *							       LINE 10/10000003D6 0CAD00000101		 CMPI.L	   #257,STATIC.+8(A5)		         $101  BYTE_PTR
	 0008
000003DE 6678			 BNE.S	   L.13.9(PC)
		      *							       LINE 10/10 (2)
		      *							       LINE 10/11
000003E0 202D0110     L.13.2	 MOVE.L	   STATIC.+272(A5),D0		         INPUT_FILE
000003E4 4A80			 TST.L	   D0
000003E6 6606			 BNE.S	   X.13.5(PC)
000003E8 4EB900000000		 JSR	   E.FILE
000003EE 2F00	      X.13.5	 MOVE.L	   D0,-(A7)
000003F0 4EB900000000		 JSR	   I.EOF
000003F6 4A1F			 TST.B	   (A7)+
000003F8 6730			 BEQ.S	   L.13.7(PC)
		      *							       LINE 10/11 (2)
		      *							       LINE 10/12
000003FA	      L.13.3
000003FA 7001	      L.13.4	 MOVEQ	   #1,D0			         $1
000003FC 2D40FEC6		 MOVE.L	   D0,-314(A6)			         LOCAL_COUNTER
		      *							       LINE 10/13
00000400 202EFEC6     L.13.5	 MOVE.L	   -314(A6),D0			         LOCAL_COUNTER
00000404 D0BC0000000F		 ADD.L	   #STATIC.+16-1,D0		         INPUT_RECORD
0000040A 7200			 MOVEQ	   #0,D1			         $0
0000040C 1B810800		 MOVE.B	   D1,0(A5,D0.L)		         $0
00000410 202EFEC6		 MOVE.L	   -314(A6),D0			         LOCAL_COUNTER
00000414 5280			 ADDQ.L	   #1,D0			         $1
00000416 2D40FEC6		 MOVE.L	   D0,-314(A6)			         LOCAL_COUNTER
0000041A 0C8000000100		 CMPI.L	   #256,D0			         $100
00000420 6FDE			 BLE.S	   L.13.5(PC)
		      *							       LINE 10/14
00000422 7001	      L.13.6	 MOVEQ	   #1,D0			         $1
00000424 1B400000		 MOVE.B	   D0,STATIC.+0(A5)		         EOF_FLAG
		      *							       LINE 10/15
00000428 6028			 BRA.S	   L.13.8(PC)
		      *							       LINE 10/17
0000042A 202D0110     L.13.7	 MOVE.L	   STATIC.+272(A5),D0		         INPUT_FILE
0000042E 4A80			 TST.L	   D0
00000430 6606			 BNE.S	   X.13.6(PC)
00000432 4EB900000000		 JSR	   E.FILE
00000438 2040	      X.13.6	 MOVEA.L   D0,A0
0000043A 2050			 MOVEA.L   (A0),A0
0000043C 43ED0010		 LEA	   STATIC.+16(A5),A1		         INPUT_RECORD
00000440 721F			 MOVEQ	   #31,D1			         $1F
00000442 22D8	      X.13.7	 MOVE.L	   (A0)+,(A1)+
00000444 22D8			 MOVE.L	   (A0)+,(A1)+
00000446 51C9FFFA		 DBF	   D1,X.13.7(PC)0000044A 2F00			 MOVE.L	   D0,-(A7)
0000044C 4EB900000000		 JSR	   Y.GET
		      *							       LINE 10/18
00000452 7001	      L.13.8	 MOVEQ	   #1,D0			         $1
00000454 2B400008		 MOVE.L	   D0,STATIC.+8(A5)		         BYTE_PTR
		      *							       LINE 10/19
		      *							       LINE 10/20
00000458 4E75	      L.13.9	 RTS	   
0000045A	      K.8
		      *
		      *		 Begin subroutine READ_STRING
		      *
0000045A 2D4FFEB0     B.17	 MOVE.L	   A7,X.17.1(A6)
		      *							       LINE 14/9
		      *							       LINE 14/10
0000045E 206EFFE8     L.17.1	 MOVEA.L   -24(A6),A0			         OUTPUT_STRING
00000462 4240			 CLR.W	   D0
00000464 B06EFFE6		 CMP.W	   -24-2(A6),D0			         OUTPUT_STRING
00000468 6F04			 BLE.S	   X.17.3(PC)
0000046A 302EFFE6		 MOVE.W	   -24-2(A6),D0			         OUTPUT_STRING
0000046E 3080	      X.17.3	 MOVE.W	   D0,(A0)
		      *							       LINE 14/11
00000470 202EFFE2		 MOVE.L	   -30(A6),D0			         INPUT_LENGTH
00000474 2D40FECA		 MOVE.L	   D0,-310(A6)			         V.35
00000478 4A80			 TST.L	   D0
0000047A 6F0000A0		 BLE.L	   L.17.7(PC)
0000047E 7001	      L.17.2	 MOVEQ	   #1,D0			         $1
00000480 2D40FED2		 MOVE.L	   D0,-302(A6)			         LOCAL_COUNTER
00000484 2E6EFEB0     L.17.3	 MOVEA.L   X.17.1(A6),A7
		      *							       LINE 14/11 (2)
		      *							       LINE 14/12
00000488 41EEFECE     L.17.4	 LEA	   -306(A6),A0			         LOCAL_ONE_BYTE
0000048C 2D48FFDE		 MOVE.L	   A0,-34(A6)			         $FFFFFFDE
00000490 6100FF10		 BSR.L	   B.13(PC)			         READ_ONE_BYTE = CODE.
		      *							       LINE 14/13
00000494 6100FED6		 BSR.L	   B.10(PC)			         CHECK_EOF_FLAG = CODE
		      *							       LINE 14/14
00000498 707F			 MOVEQ	   #127,D0			         $7F
0000049A B0AEFECE		 CMP.L	   -306(A6),D0			         LOCAL_ONE_BYTE
0000049E 6C06			 BGE.S	   L.17.6(PC)
		      *							       LINE 14/15
000004A0 7020	      L.17.5	 MOVEQ	   #32,D0			         $20
000004A2 2D40FECE		 MOVE.L	   D0,-306(A6)			         LOCAL_ONE_BYTE
		      *							       LINE 14/16
000004A6 206EFFE8     L.17.6	 MOVEA.L   -24(A6),A0			         OUTPUT_STRING000004AA 3010			 MOVE.W	   (A0),D0
000004AC 222EFECE		 MOVE.L	   -306(A6),D1			         LOCAL_ONE_BYTE
000004B0 747F			 MOVEQ	   #127,D2			         $7F
000004B2 B282			 CMP.L	   D2,D1
000004B4 6F06			 BLE.S	   X.17.4(PC)
000004B6 4EB900000000		 JSR	   E.VALUE
000004BC 5240	      X.17.4	 ADDQ.W	   #1,D0			         $1
000004BE 4840			 SWAP	   D0
000004C0 4240			 CLR.W	   D0
000004C2 4840			 SWAP	   D0
000004C4 2F00			 MOVE.L	   D0,-(A7)
000004C6 4EB900000000		 JSR	   M.DYNTMB
000004CC 224F			 MOVEA.L   A7,A1
000004CE 4851			 PEA	   (A1)
000004D0 3F00			 MOVE.W	   D0,-(A7)
000004D2 48680002		 PEA	   2(A0)			         $2
000004D6 3F10			 MOVE.W	   (A0),-(A7)
000004D8 4EB900000000		 JSR	   C.MVFF
000004DE 1F01			 MOVE.B	   D1,-(A7)
000004E0 4EB900000000		 JSR	   C.MVCR
000004E6 206EFFE8		 MOVEA.L   -24(A6),A0			         OUTPUT_STRING
000004EA 3200			 MOVE.W	   D0,D1
000004EC B26EFFE6		 CMP.W	   -24-2(A6),D1			         OUTPUT_STRING
000004F0 6F04			 BLE.S	   X.17.5(PC)
000004F2 322EFFE6		 MOVE.W	   -24-2(A6),D1			         OUTPUT_STRING
000004F6 3081	      X.17.5	 MOVE.W	   D1,(A0)
000004F8 48680002		 PEA	   2(A0)			         $2
000004FC 3F2EFFE6		 MOVE.W	   -24-2(A6),-(A7)		         OUTPUT_STRING
00000500 4851			 PEA	   (A1)
00000502 3F00			 MOVE.W	   D0,-(A7)
00000504 4EB900000000		 JSR	   C.MVFF
		      *							       LINE 14/17
0000050A 202EFED2		 MOVE.L	   -302(A6),D0			         LOCAL_COUNTER
0000050E 5280			 ADDQ.L	   #1,D0			         $1
00000510 2D40FED2		 MOVE.L	   D0,-302(A6)			         LOCAL_COUNTER
00000514 B0AEFECA		 CMP.L	   -310(A6),D0			         V.35
00000518 6F00FF6A		 BLE.L	   L.17.3(PC)
0000051C 2E6EFEB0     L.17.7	 MOVEA.L   X.17.1(A6),A7
		      *							       LINE 14/18
00000520 4E75			 RTS	   
		      *
		      *		 Begin subroutine PROCESS_IDENTIFICATION_RECORD
		      *
00000522	      B.18
		      *							       LINE 15/7		      *							       LINE 15/8
00000522 41EEFED6     L.18.1	 LEA	   -298(A6),A0			         LOCAL_STRING
00000526 2D48FFE8		 MOVE.L	   A0,-24(A6)			         $FFFFFFE8
0000052A 3D7C00FFFFE6		 MOVE.W	   #255,-26(A6)			         $FF  $FFFFFFE6
00000530 202D000C		 MOVE.L	   STATIC.+12(A5),D0		         BYTE_COUNT
00000534 5380			 SUBQ.L	   #1,D0			         $1
00000536 4A40			 TST.W	   D0
00000538 6C06			 BGE.S	   X.18.3(PC)
0000053A 4EB900000000 X.18.4	 JSR	   E.VALUE
00000540 0C4000FF     X.18.3	 CMPI.W	   #255,D0			         $FF
00000544 6EF4			 BGT.S	   X.18.4(PC)
00000546 2D40FFE2		 MOVE.L	   D0,-30(A6)			         $FFFFFFE2
0000054A 6100FF0E		 BSR.L	   B.17(PC)			         READ_STRING = CODE.+$
		      *							       LINE 15/9
0000054E 6100FE1C		 BSR.L	   B.10(PC)			         CHECK_EOF_FLAG = CODE
		      *							       LINE 15/10
00000552 7001			 MOVEQ	   #1,D0			         $1
00000554 1B400002		 MOVE.B	   D0,STATIC.+2(A5)		         ID_FLAG
		      *							       LINE 15/11
00000558 7000			 MOVEQ	   #0,D0			         $0
0000055A 1B400003		 MOVE.B	   D0,STATIC.+3(A5)		         END_FLAG
		      *							       LINE 15/12
0000055E 6100FAAC		 BSR.L	   B.3(PC)			         ARRAY_INIT = CODE.+$C
		      *							       LINE 15/13
00000562 4E75			 RTS	   
00000564 5265636F7264 K.9	 DC.B	   'Record encountered before Identification Record.'
		      *
		      *		 Begin subroutine CHECK_ID_FLAG
		      *
00000594	      B.11
		      *							       LINE 9/13
		      *							       LINE 9/14
00000594 4A2D0002     L.11.1	 TST.B	   STATIC.+2(A5)		         ID_FLAG
00000598 662E			 BNE.S	   L.11.3(PC)
		      *							       LINE 9/15
0000059A 3D7C0030FE94 L.11.2	 MOVE.W	   #48,-364(A6)			         $30  $FFFFFE94
000005A0 486EFE96		 PEA	   -362(A6)			         $FFFFFE96
000005A4 3F2EFE94		 MOVE.W	   -364(A6),-(A7)		         $FFFFFE94
000005A8 487AFFBA		 PEA	   K.9(PC)			         CODE.+$564
000005AC 7030			 MOVEQ	   #48,D0			         $30
000005AE 3F00			 MOVE.W	   D0,-(A7)
000005B0 4EB900000000		 JSR	   C.MVFF
000005B6 41EEFE94		 LEA	   -364(A6),A0			         $FFFFFE94
000005BA 2D48FFDA		 MOVE.L	   A0,-38(A6)			         $FFFFFFDA
000005BE 3D7C0030FFD8		 MOVE.W	   #48,-40(A6)			         $30  $FFFFFFD8000005C4 6100FBBA		 BSR.L	   B.8(PC)			         WARNING = CODE.+$180
		      *							       LINE 9/16
000005C8 4E75	      L.11.3	 RTS	   
000005CA 5265636F7264 K.10	 DC.B	   'Record encountered after End Record.'
		      *
		      *		 Begin subroutine CHECK_END_FLAG
		      *
000005EE	      B.12
		      *							       LINE 9/22
		      *							       LINE 9/23
000005EE 4A2D0003     L.12.1	 TST.B	   STATIC.+3(A5)		         END_FLAG
000005F2 672E			 BEQ.S	   L.12.3(PC)
		      *							       LINE 9/24
000005F4 3D7C0024FEA0 L.12.2	 MOVE.W	   #36,-352(A6)			         $24  $FFFFFEA0
000005FA 486EFEA2		 PEA	   -350(A6)			         $FFFFFEA2
000005FE 3F2EFEA0		 MOVE.W	   -352(A6),-(A7)		         $FFFFFEA0
00000602 487AFFC6		 PEA	   K.10(PC)			         CODE.+$5CA
00000606 7024			 MOVEQ	   #36,D0			         $24
00000608 3F00			 MOVE.W	   D0,-(A7)
0000060A 4EB900000000		 JSR	   C.MVFF
00000610 41EEFEA0		 LEA	   -352(A6),A0			         $FFFFFEA0
00000614 2D48FFDA		 MOVE.L	   A0,-38(A6)			         $FFFFFFDA
00000618 3D7C0024FFD8		 MOVE.W	   #36,-40(A6)			         $24  $FFFFFFD8
0000061E 6100FB60		 BSR.L	   B.8(PC)			         WARNING = CODE.+$180
		      *							       LINE 9/25
00000622 4E75	      L.12.3	 RTS	   
		      *
		      *		 Begin subroutine READ_FOUR_BYTES
		      *
00000624	      B.16
		      *							       LINE 13/8
		      *							       LINE 13/9
00000624 41EEFF74     L.16.1	 LEA	   -140(A6),A0			         LOCAL_ONE_BYTE
00000628 2D48FFDE		 MOVE.L	   A0,-34(A6)			         $FFFFFFDE
0000062C 6100FD74		 BSR.L	   B.13(PC)			         READ_ONE_BYTE = CODE.
		      *							       LINE 13/10
00000630 6100FD3A		 BSR.L	   B.10(PC)			         CHECK_EOF_FLAG = CODE
		      *							       LINE 13/11
00000634 206EFFEC		 MOVEA.L   -20(A6),A0			         OUTPUT_FOUR_BYTES
00000638 20AEFF74		 MOVE.L	   -140(A6),(A0)		         LOCAL_ONE_BYTE
		      *							       LINE 13/12
0000063C 7001	      L.16.2	 MOVEQ	   #1,D0			         $1
0000063E 2D40FF78		 MOVE.L	   D0,-136(A6)			         LOCAL_COUNTER
00000642	      L.16.3
		      *							       LINE 13/12 (2)		      *							       LINE 13/13
00000642 41EEFF74     L.16.4	 LEA	   -140(A6),A0			         LOCAL_ONE_BYTE
00000646 2D48FFDE		 MOVE.L	   A0,-34(A6)			         $FFFFFFDE
0000064A 6100FD56		 BSR.L	   B.13(PC)			         READ_ONE_BYTE = CODE.
		      *							       LINE 13/14
0000064E 6100FD1C		 BSR.L	   B.10(PC)			         CHECK_EOF_FLAG = CODE
		      *							       LINE 13/15
00000652 206EFFEC		 MOVEA.L   -20(A6),A0			         OUTPUT_FOUR_BYTES
00000656 226EFFEC		 MOVEA.L   -20(A6),A1			         OUTPUT_FOUR_BYTES
0000065A 2011			 MOVE.L	   (A1),D0
0000065C E180			 ASL.L	   #8,D0			         $8
0000065E D0AEFF74		 ADD.L	   -140(A6),D0			         LOCAL_ONE_BYTE
00000662 4A80			 TST.L	   D0
00000664 6C06			 BGE.S	   X.16.3(PC)
00000666 4EB900000000		 JSR	   E.VALUE
0000066C 2080	      X.16.3	 MOVE.L	   D0,(A0)
		      *							       LINE 13/16
0000066E 202EFF78		 MOVE.L	   -136(A6),D0			         LOCAL_COUNTER
00000672 5280			 ADDQ.L	   #1,D0			         $1
00000674 2D40FF78		 MOVE.L	   D0,-136(A6)			         LOCAL_COUNTER
00000678 7203			 MOVEQ	   #3,D1			         $3
0000067A B081			 CMP.L	   D1,D0
0000067C 6FC4			 BLE.S	   L.16.3(PC)
		      *							       LINE 13/17
0000067E 4E75	      L.16.5	 RTS	   
00000680 496C6C656761 K.11	 DC.B	   'Illegal ESD record type.'
		      *
		      *		 Begin subroutine PROCESS_ESD_RECORD
		      *
00000698	      B.19
		      *							       LINE 16/9
		      *							       LINE 16/10
00000698 6100FEFA     L.19.1	 BSR.L	   B.11(PC)			         CHECK_ID_FLAG = CODE.
		      *							       LINE 16/11
0000069C 6100FF50		 BSR.L	   B.12(PC)			         CHECK_END_FLAG = CODE
		      *							       LINE 16/12
000006A0 41EEFFD4		 LEA	   -44(A6),A0			         LOCAL_ONE_BYTE
000006A4 2D48FFDE		 MOVE.L	   A0,-34(A6)			         $FFFFFFDE
000006A8 6100FCF8		 BSR.L	   B.13(PC)			         READ_ONE_BYTE = CODE.
		      *							       LINE 16/13
000006AC 6100FCBE		 BSR.L	   B.10(PC)			         CHECK_EOF_FLAG = CODE
		      *							       LINE 16/14
000006B0 202EFFD4		 MOVE.L	   -44(A6),D0			         LOCAL_ONE_BYTE
000006B4 E888			 LSR.L	   #4,D0			         $4
000006B6 5580			 SUBQ.L	   #2,D0			         $2000006B8 6D0000B4		 BLT.L	   L.19.8(PC)
000006BC 0C8000000005		 CMPI.L	   #5,D0			         $5
000006C2 6E0000AA		 BGT.L	   L.19.8(PC)
000006C6 D040			 ADD.W	   D0,D0
000006C8 303B0006		 MOVE.W	   X.19.3(PC,D0.W),D0
000006CC 4EFB0002		 JMP	   X.19.3(PC,D0.W)
000006D0 0000	      X.19.3	 DC.W	   L.19.2-*
000006D2 0000			 DC.W	   L.19.8+2-*
000006D4 0000			 DC.W	   L.19.4+4-*
000006D6 0000			 DC.W	   L.19.8+6-*
000006D8 0000			 DC.W	   L.19.8+8-*
000006DA 0000			 DC.W	   L.19.6+10-*
000006DC	      L.19.2
		      *							       LINE 16/16
		      *							       LINE 16/17
000006DC 41EEFFD0     L.19.3	 LEA	   -48(A6),A0			         LOCAL_FOUR_BYTES
000006E0 2D48FFEC		 MOVE.L	   A0,-20(A6)			         $FFFFFFEC
000006E4 6100FF3E		 BSR.L	   B.16(PC)			         READ_FOUR_BYTES = COD
		      *							       LINE 16/18
000006E8 600000B2		 BRA.L	   L.19.9(PC)
000006EC	      L.19.4
		      *							       LINE 16/20
		      *							       LINE 16/21
000006EC 41EEFFC4     L.19.5	 LEA	   -60(A6),A0			         LOCAL_STRING
000006F0 2D48FFE8		 MOVE.L	   A0,-24(A6)			         $FFFFFFE8
000006F4 3D7C000AFFE6		 MOVE.W	   #10,-26(A6)			         $A  $FFFFFFE6
000006FA 2D7C0000000A		 MOVE.L	   #10,-30(A6)			         $A  $FFFFFFE2
	 FFE2
00000702 6100FD56		 BSR.L	   B.17(PC)			         READ_STRING = CODE.+$
		      *							       LINE 16/22
00000706 41EEFFD0		 LEA	   -48(A6),A0			         LOCAL_FOUR_BYTES
0000070A 2D48FFEC		 MOVE.L	   A0,-20(A6)			         $FFFFFFEC
0000070E 6100FF14		 BSR.L	   B.16(PC)			         READ_FOUR_BYTES = COD
		      *							       LINE 16/23
00000712 60000088		 BRA.L	   L.19.9(PC)
00000716	      L.19.6
		      *							       LINE 16/25
		      *							       LINE 16/26
00000716 41EEFFC4     L.19.7	 LEA	   -60(A6),A0			         LOCAL_STRING
0000071A 2D48FFE8		 MOVE.L	   A0,-24(A6)			         $FFFFFFE8
0000071E 3D7C000AFFE6		 MOVE.W	   #10,-26(A6)			         $A  $FFFFFFE6
00000724 2D7C0000000A		 MOVE.L	   #10,-30(A6)			         $A  $FFFFFFE2
	 FFE2
0000072C 6100FD2C		 BSR.L	   B.17(PC)			         READ_STRING = CODE.+$
		      *							       LINE 16/2700000730 202D0004		 MOVE.L	   STATIC.+4(A5),D0		         CURRENT_ESDID
00000734 E940			 ASL.W	   #4,D0			         $4
00000736 41ED0008		 LEA	   STATIC.+280-272(A5),A0	         ESDID_ARRAY
0000073A 322EFFC4		 MOVE.W	   -60(A6),D1			         LOCAL_STRING
0000073E 43EEFFC4		 LEA	   -60(A6),A1			         LOCAL_STRING
00000742 41F00000		 LEA	   0(A0,D0.W),A0		         $0
00000746 5241			 ADDQ.W	   #1,D1			         $1
00000748 E249			 LSR.W	   #1,D1			         $1
0000074A 30D9	      X.19.4	 MOVE.W	   (A1)+,(A0)+
0000074C 51C9FFFC		 DBF	   D1,X.19.4(PC)
		      *							       LINE 16/28
00000750 202D0004		 MOVE.L	   STATIC.+4(A5),D0		         CURRENT_ESDID
00000754 5280			 ADDQ.L	   #1,D0			         $1
00000756 7211			 MOVEQ	   #17,D1			         $11
00000758 B041			 CMP.W	   D1,D0
0000075A 6C06			 BGE.S	   X.19.5(PC)
0000075C 4EB900000000 X.19.6	 JSR	   E.VALUE
00000762 0C4000FF     X.19.5	 CMPI.W	   #255,D0			         $FF
00000766 6EF4			 BGT.S	   X.19.6(PC)
00000768 2B400004		 MOVE.L	   D0,STATIC.+4(A5)		         CURRENT_ESDID
		      *							       LINE 16/29
0000076C 602E			 BRA.S	   L.19.9(PC)
		      *							       LINE 16/31
0000076E 3D7C0018FE7A L.19.8	 MOVE.W	   #24,-390(A6)			         $18  $FFFFFE7A
00000774 486EFE7C		 PEA	   -388(A6)			         $FFFFFE7C
00000778 3F2EFE7A		 MOVE.W	   -390(A6),-(A7)		         $FFFFFE7A
0000077C 487AFF02		 PEA	   K.11(PC)			         CODE.+$680
00000780 7018			 MOVEQ	   #24,D0			         $18
00000782 3F00			 MOVE.W	   D0,-(A7)
00000784 4EB900000000		 JSR	   C.MVFF
0000078A 41EEFE7A		 LEA	   -390(A6),A0			         $FFFFFE7A
0000078E 2D48FFFC		 MOVE.L	   A0,-4(A6)			         $FFFFFFFC
00000792 3D7C0018FFFA		 MOVE.W	   #24,-6(A6)			         $18  $FFFFFFFA
00000798 6100FADE		 BSR.L	   B.9(PC)			         ERROR = CODE.+$278
		      *							       LINE 16/34
0000079C 4E75	      L.19.9	 RTS	   
		      *
		      *		 Begin subroutine GET_BITS
		      *
0000079E	      B.20
		      *							       LINE 17/11
		      *							       LINE 17/12
0000079E 206EFFA0     L.20.1	 MOVEA.L   -96(A6),A0			         GET_BITS
000007A2 7000			 MOVEQ	   #0,D0			         $0
000007A4 2080			 MOVE.L	   D0,(A0)		      *							       LINE 17/13
000007A6 2D6EFFA4FF70		 MOVE.L	   -92(A6),-144(A6)		         INPUT_BYTE  LOCAL_BYT
		      *							       LINE 17/14
000007AC 7000	      L.20.2	 MOVEQ	   #0,D0			         $0
000007AE 2D40FF78		 MOVE.L	   D0,-136(A6)			         LOCAL_COUNTER
000007B2	      L.20.3
		      *							       LINE 17/14 (2)
		      *							       LINE 17/15
000007B2 202EFF70     L.20.4	 MOVE.L	   -144(A6),D0			         LOCAL_BYTE
000007B6 C07C0001		 AND.W	   #1,D0			         $1
000007BA 4A00			 TST.B	   D0
000007BC 6C06			 BGE.S	   X.20.3(PC)
000007BE 4EB900000000 X.20.4	 JSR	   E.VALUE
000007C4 7201	      X.20.3	 MOVEQ	   #1,D1			         $1
000007C6 B001			 CMP.B	   D1,D0
000007C8 6EF4			 BGT.S	   X.20.4(PC)
000007CA 48C0			 EXT.L	   D0
000007CC 2D40FF74		 MOVE.L	   D0,-140(A6)			         LOCAL_BIT
		      *							       LINE 17/16
000007D0 202EFF70		 MOVE.L	   -144(A6),D0			         LOCAL_BYTE
000007D4 E288			 LSR.L	   #1,D0			         $1
000007D6 4A80			 TST.L	   D0
000007D8 6C06			 BGE.S	   X.20.5(PC)
000007DA 4EB900000000 X.20.6	 JSR	   E.VALUE
000007E0 0C80000000FF X.20.5	 CMPI.L	   #255,D0			         $FF
000007E6 6EF2			 BGT.S	   X.20.6(PC)
000007E8 2D40FF70		 MOVE.L	   D0,-144(A6)			         LOCAL_BYTE
		      *							       LINE 17/17
000007EC 202EFF78		 MOVE.L	   -136(A6),D0			         LOCAL_COUNTER
000007F0 B0AEFFA8		 CMP.L	   -88(A6),D0			         INPUT_LAST_BIT
000007F4 6D4C			 BLT.S	   L.20.7(PC)
000007F6 202EFFA8     L.20.5	 MOVE.L	   -88(A6),D0			         INPUT_LAST_BIT
000007FA D0AEFFAC		 ADD.L	   -84(A6),D0			         INPUT_NUMBER_BITS
000007FE B0AEFF78		 CMP.L	   -136(A6),D0			         LOCAL_COUNTER
00000802 6F3E			 BLE.S	   L.20.7(PC)
		      *							       LINE 17/19
00000804 206EFFA0     L.20.6	 MOVEA.L   -96(A6),A0			         GET_BITS
00000808 226EFFA0		 MOVEA.L   -96(A6),A1			         GET_BITS
0000080C 7002			 MOVEQ	   #2,D0			         $2
0000080E 2F00			 MOVE.L	   D0,-(A7)
00000810 202EFF78		 MOVE.L	   -136(A6),D0			         LOCAL_COUNTER
00000814 90AEFFA8		 SUB.L	   -88(A6),D0			         INPUT_LAST_BIT
00000818 2F00			 MOVE.L	   D0,-(A7)
0000081A 4EB900000000		 JSR	   G.I4PWR
00000820 2F2EFF74		 MOVE.L	   -140(A6),-(A7)		         LOCAL_BIT00000824 4EB900000000		 JSR	   G.I4MULT
0000082A 2011			 MOVE.L	   (A1),D0
0000082C D09F			 ADD.L	   (A7)+,D0
0000082E 4A80			 TST.L	   D0
00000830 6C06			 BGE.S	   X.20.7(PC)
00000832 4EB900000000 X.20.8	 JSR	   E.VALUE
00000838 0C80000000FF X.20.7	 CMPI.L	   #255,D0			         $FF
0000083E 6EF2			 BGT.S	   X.20.8(PC)
00000840 2080			 MOVE.L	   D0,(A0)
		      *							       LINE 17/20
00000842 202EFF78     L.20.7	 MOVE.L	   -136(A6),D0			         LOCAL_COUNTER
00000846 5280			 ADDQ.L	   #1,D0			         $1
00000848 2D40FF78		 MOVE.L	   D0,-136(A6)			         LOCAL_COUNTER
0000084C 7207			 MOVEQ	   #7,D1			         $7
0000084E B081			 CMP.L	   D1,D0
00000850 6F00FF60		 BLE.L	   L.20.3(PC)
		      *							       LINE 17/21
00000854 4E75	      L.20.8	 RTS	   
00000856 496E636F7272 K.12	 DC.B	   'Incorrect Text Record byte count.'
00000877 00000001		 DS.B	   1
		      *
		      *		 Begin subroutine DECREMENT_CHECK_BYTE_COUNT
		      *
00000878	      B.21
		      *							       LINE 18/4
		      *							       LINE 18/5
00000878 202D000C     L.21.1	 MOVE.L	   STATIC.+12(A5),D0		         BYTE_COUNT
0000087C 90AEFFB0		 SUB.L	   -80(A6),D0			         INPUT_AMOUNT
00000880 4A80			 TST.L	   D0
00000882 6C06			 BGE.S	   X.21.3(PC)
00000884 4EB900000000 X.21.4	 JSR	   E.VALUE
0000088A 0C80000000FF X.21.3	 CMPI.L	   #255,D0			         $FF
00000890 6EF2			 BGT.S	   X.21.4(PC)
00000892 2B40000C		 MOVE.L	   D0,STATIC.+12(A5)		         BYTE_COUNT
		      *							       LINE 18/6
00000896 4AAD000C		 TST.L	   STATIC.+12(A5)		         BYTE_COUNT
0000089A 6C2E			 BGE.S	   L.21.3(PC)
		      *							       LINE 18/7
0000089C 3D7C0021FEA2 L.21.2	 MOVE.W	   #33,-350(A6)			         $21  $FFFFFEA2
000008A2 486EFEA4		 PEA	   -348(A6)			         $FFFFFEA4
000008A6 3F2EFEA2		 MOVE.W	   -350(A6),-(A7)		         $FFFFFEA2
000008AA 487AFFAA		 PEA	   K.12(PC)			         CODE.+$856
000008AE 7021			 MOVEQ	   #33,D0			         $21
000008B0 3F00			 MOVE.W	   D0,-(A7)
000008B2 4EB900000000		 JSR	   C.MVFF000008B8 41EEFEA2		 LEA	   -350(A6),A0			         $FFFFFEA2
000008BC 2D48FFFC		 MOVE.L	   A0,-4(A6)			         $FFFFFFFC
000008C0 3D7C0021FFFA		 MOVE.W	   #33,-6(A6)			         $21  $FFFFFFFA
000008C6 6100F9B0		 BSR.L	   B.9(PC)			         ERROR = CODE.+$278
		      *							       LINE 18/8
000008CA 4E75	      L.21.3	 RTS	   
		      *
		      *		 Begin subroutine READ_TWO_BYTES
		      *
000008CC	      B.14
		      *							       LINE 11/7
		      *							       LINE 11/8
000008CC 41EEFF78     L.14.1	 LEA	   -136(A6),A0			         LOCAL_ONE_BYTE
000008D0 2D48FFDE		 MOVE.L	   A0,-34(A6)			         $FFFFFFDE
000008D4 6100FACC		 BSR.L	   B.13(PC)			         READ_ONE_BYTE = CODE.
		      *							       LINE 11/9
000008D8 6100FA92		 BSR.L	   B.10(PC)			         CHECK_EOF_FLAG = CODE
		      *							       LINE 11/10
000008DC 206EFFB4		 MOVEA.L   -76(A6),A0			         OUTPUT_TWO_BYTES
000008E0 20AEFF78		 MOVE.L	   -136(A6),(A0)		         LOCAL_ONE_BYTE
		      *							       LINE 11/11
000008E4 41EEFF78		 LEA	   -136(A6),A0			         LOCAL_ONE_BYTE
000008E8 2D48FFDE		 MOVE.L	   A0,-34(A6)			         $FFFFFFDE
000008EC 6100FAB4		 BSR.L	   B.13(PC)			         READ_ONE_BYTE = CODE.
		      *							       LINE 11/12
000008F0 6100FA7A		 BSR.L	   B.10(PC)			         CHECK_EOF_FLAG = CODE
		      *							       LINE 11/13
000008F4 206EFFB4		 MOVEA.L   -76(A6),A0			         OUTPUT_TWO_BYTES
000008F8 226EFFB4		 MOVEA.L   -76(A6),A1			         OUTPUT_TWO_BYTES
000008FC 2011			 MOVE.L	   (A1),D0
000008FE E180			 ASL.L	   #8,D0			         $8
00000900 D0AEFF78		 ADD.L	   -136(A6),D0			         LOCAL_ONE_BYTE
00000904 4A80			 TST.L	   D0
00000906 6C06			 BGE.S	   X.14.3(PC)
00000908 4EB900000000 X.14.4	 JSR	   E.VALUE
0000090E 0C800000FFFF X.14.3	 CMPI.L	   #65535,D0			         $FFFF
00000914 6EF2			 BGT.S	   X.14.4(PC)
00000916 2080			 MOVE.L	   D0,(A0)
		      *							       LINE 11/14
00000918 4E75			 RTS	   
		      *
		      *		 Begin subroutine PROCESS_ABSOLUTE_CODE
		      *
0000091A	      B.22
		      *							       LINE 19/7		      *							       LINE 19/8
0000091A 41EEFF9C     L.22.1	 LEA	   -100(A6),A0			         LOCAL_TWO_BYTES
0000091E 2D48FFB4		 MOVE.L	   A0,-76(A6)			         $FFFFFFB4
00000922 61A8			 BSR.S	   B.14(PC)			         READ_TWO_BYTES = CODE
		      *							       LINE 19/9
00000924 2D7C00000002		 MOVE.L	   #2,-80(A6)			         $2  $FFFFFFB0
	 FFB0
0000092C 6100FF4A		 BSR.L	   B.21(PC)			         DECREMENT_CHECK_BYTE 
		      *							       LINE 19/10
00000930 4E75			 RTS	   
		      *
		      *		 Begin subroutine READ_THREE_BYTES
		      *
00000932	      B.15
		      *							       LINE 12/8
		      *							       LINE 12/9
00000932 41EEFF74     L.15.1	 LEA	   -140(A6),A0			         LOCAL_ONE_BYTE
00000936 2D48FFDE		 MOVE.L	   A0,-34(A6)			         $FFFFFFDE
0000093A 6100FA66		 BSR.L	   B.13(PC)			         READ_ONE_BYTE = CODE.
		      *							       LINE 12/10
0000093E 6100FA2C		 BSR.L	   B.10(PC)			         CHECK_EOF_FLAG = CODE
		      *							       LINE 12/11
00000942 206EFF7C		 MOVEA.L   -132(A6),A0			         OUTPUT_THREE_BYTES
00000946 20AEFF74		 MOVE.L	   -140(A6),(A0)		         LOCAL_ONE_BYTE
		      *							       LINE 12/12
0000094A 7001	      L.15.2	 MOVEQ	   #1,D0			         $1
0000094C 2D40FF78		 MOVE.L	   D0,-136(A6)			         LOCAL_COUNTER
00000950	      L.15.3
		      *							       LINE 12/12 (2)
		      *							       LINE 12/13
00000950 41EEFF74     L.15.4	 LEA	   -140(A6),A0			         LOCAL_ONE_BYTE
00000954 2D48FFDE		 MOVE.L	   A0,-34(A6)			         $FFFFFFDE
00000958 6100FA48		 BSR.L	   B.13(PC)			         READ_ONE_BYTE = CODE.
		      *							       LINE 12/14
0000095C 6100FA0E		 BSR.L	   B.10(PC)			         CHECK_EOF_FLAG = CODE
		      *							       LINE 12/15
00000960 206EFF7C		 MOVEA.L   -132(A6),A0			         OUTPUT_THREE_BYTES
00000964 226EFF7C		 MOVEA.L   -132(A6),A1			         OUTPUT_THREE_BYTES
00000968 2011			 MOVE.L	   (A1),D0
0000096A E180			 ASL.L	   #8,D0			         $8
0000096C D0AEFF74		 ADD.L	   -140(A6),D0			         LOCAL_ONE_BYTE
00000970 4A80			 TST.L	   D0
00000972 6C06			 BGE.S	   X.15.3(PC)
00000974 4EB900000000 X.15.4	 JSR	   E.VALUE
0000097A 0C8000FFFFFF X.15.3	 CMPI.L	   #16777215,D0			         $FFFFFF00000980 6EF2			 BGT.S	   X.15.4(PC)
00000982 2080			 MOVE.L	   D0,(A0)
		      *							       LINE 12/16
00000984 202EFF78		 MOVE.L	   -136(A6),D0			         LOCAL_COUNTER
00000988 5280			 ADDQ.L	   #1,D0			         $1
0000098A 2D40FF78		 MOVE.L	   D0,-136(A6)			         LOCAL_COUNTER
0000098E 7202			 MOVEQ	   #2,D1			         $2
00000990 B081			 CMP.L	   D1,D0
00000992 6FBC			 BLE.S	   L.15.3(PC)
		      *							       LINE 12/17
00000994 4E75	      L.15.5	 RTS	   
		      *
		      *		 Begin subroutine PROCESS_RELOCATION_DATA
		      *
00000996	      B.23
		      *							       LINE 20/13
		      *							       LINE 20/14
00000996 41EEFF90     L.23.1	 LEA	   -112(A6),A0			         LOCAL_ONE_BYTE
0000099A 2D48FFDE		 MOVE.L	   A0,-34(A6)			         $FFFFFFDE
0000099E 6100FA02		 BSR.L	   B.13(PC)			         READ_ONE_BYTE = CODE.
		      *							       LINE 20/15
000009A2 6100F9C8		 BSR.L	   B.10(PC)			         CHECK_EOF_FLAG = CODE
		      *							       LINE 20/16
000009A6 2D7C00000001		 MOVE.L	   #1,-80(A6)			         $1  $FFFFFFB0
	 FFB0
000009AE 6100FEC8		 BSR.L	   B.21(PC)			         DECREMENT_CHECK_BYTE 
		      *							       LINE 20/17
000009B2 2D7C00000003		 MOVE.L	   #3,-84(A6)			         $3  $FFFFFFAC
	 FFAC
000009BA 2D7C00000005		 MOVE.L	   #5,-88(A6)			         $5  $FFFFFFA8
	 FFA8
000009C2 2D6EFF90FFA4		 MOVE.L	   -112(A6),-92(A6)		         LOCAL_ONE_BYTE  $FFFF
000009C8 41EEFE9E		 LEA	   -354(A6),A0			         $FFFFFE9E
000009CC 2D48FFA0		 MOVE.L	   A0,-96(A6)			         $FFFFFFA0
000009D0 6100FDCC		 BSR.L	   B.20(PC)			         GET_BITS = CODE.+$79E
000009D4 202EFE9E		 MOVE.L	   -354(A6),D0			         $FFFFFE9E
000009D8 7207			 MOVEQ	   #7,D1			         $7
000009DA B081			 CMP.L	   D1,D0
000009DC 6F06			 BLE.S	   X.23.3(PC)
000009DE 4EB900000000		 JSR	   E.VALUE
000009E4 2D40FF98     X.23.3	 MOVE.L	   D0,-104(A6)			         LOCAL_NUM_ESDID
		      *							       LINE 20/18
000009E8 2D7C00000003		 MOVE.L	   #3,-84(A6)			         $3  $FFFFFFAC
	 FFAC
000009F0 42AEFFA8		 CLR.L	   -88(A6)			         $FFFFFFA8000009F4 2D6EFF90FFA4		 MOVE.L	   -112(A6),-92(A6)		         LOCAL_ONE_BYTE  $FFFF
000009FA 41EEFE9E		 LEA	   -354(A6),A0			         $FFFFFE9E
000009FE 2D48FFA0		 MOVE.L	   A0,-96(A6)			         $FFFFFFA0
00000A02 6100FD9A		 BSR.L	   B.20(PC)			         GET_BITS = CODE.+$79E
00000A06 202EFE9E		 MOVE.L	   -354(A6),D0			         $FFFFFE9E
00000A0A 7204			 MOVEQ	   #4,D1			         $4
00000A0C B081			 CMP.L	   D1,D0
00000A0E 6F06			 BLE.S	   X.23.4(PC)
00000A10 4EB900000000		 JSR	   E.VALUE
00000A16 2D40FF94     X.23.4	 MOVE.L	   D0,-108(A6)			         LOCAL_OFFSET_LENGTH
		      *							       LINE 20/19
00000A1A 202EFF98		 MOVE.L	   -104(A6),D0			         LOCAL_NUM_ESDID
00000A1E 2D40FF80		 MOVE.L	   D0,-128(A6)			         V.52
00000A22 4A80			 TST.L	   D0
00000A24 6F7A			 BLE.S	   L.23.7(PC)
00000A26 7001	      L.23.2	 MOVEQ	   #1,D0			         $1
00000A28 2D40FF9C		 MOVE.L	   D0,-100(A6)			         LOCAL_COUNTER
00000A2C	      L.23.3
		      *							       LINE 20/19 (2)
		      *							       LINE 20/20
00000A2C 41EEFF90     L.23.4	 LEA	   -112(A6),A0			         LOCAL_ONE_BYTE
00000A30 2D48FFDE		 MOVE.L	   A0,-34(A6)			         $FFFFFFDE
00000A34 6100F96C		 BSR.L	   B.13(PC)			         READ_ONE_BYTE = CODE.
		      *							       LINE 20/21
00000A38 6100F932		 BSR.L	   B.10(PC)			         CHECK_EOF_FLAG = CODE
		      *							       LINE 20/22
00000A3C 2D7C00000001		 MOVE.L	   #1,-80(A6)			         $1  $FFFFFFB0
	 FFB0
00000A44 6100FE32		 BSR.L	   B.21(PC)			         DECREMENT_CHECK_BYTE 
		      *							       LINE 20/23
00000A48 7011			 MOVEQ	   #17,D0			         $11
00000A4A B0AEFF90		 CMP.L	   -112(A6),D0			         LOCAL_ONE_BYTE
00000A4E 6E40			 BGT.S	   L.23.6(PC)
		      *							       LINE 20/24
00000A50 202EFF90     L.23.5	 MOVE.L	   -112(A6),D0			         LOCAL_ONE_BYTE
00000A54 7211			 MOVEQ	   #17,D1			         $11
00000A56 B081			 CMP.L	   D1,D0
00000A58 6C06			 BGE.S	   X.23.5(PC)
00000A5A 4EB900000000		 JSR	   E.INDEX
00000A60 E940	      X.23.5	 ASL.W	   #4,D0			         $4
00000A62 41ED0008		 LEA	   STATIC.+280-272(A5),A0	         ESDID_ARRAY
00000A66 222EFF90		 MOVE.L	   -112(A6),D1			         LOCAL_ONE_BYTE
00000A6A 7411			 MOVEQ	   #17,D2			         $11
00000A6C B282			 CMP.L	   D2,D1
00000A6E 6C06			 BGE.S	   X.23.6(PC)00000A70 4EB900000000		 JSR	   E.INDEX
00000A76 E941	      X.23.6	 ASL.W	   #4,D1			         $4
00000A78 43ED0008		 LEA	   STATIC.+280-272(A5),A1	         ESDID_ARRAY
00000A7C 2231100C		 MOVE.L	   12(A1,D1.W),D1		         $C
00000A80 5281			 ADDQ.L	   #1,D1			         $1
00000A82 4A81			 TST.L	   D1
00000A84 6C06			 BGE.S	   X.23.7(PC)
00000A86 4EB900000000		 JSR	   E.VALUE
00000A8C 2181000C     X.23.7	 MOVE.L	   D1,12(A0,D0.W)		         $C
		      *							       LINE 20/26
00000A90 202EFF9C     L.23.6	 MOVE.L	   -100(A6),D0			         LOCAL_COUNTER
00000A94 5280			 ADDQ.L	   #1,D0			         $1
00000A96 2D40FF9C		 MOVE.L	   D0,-100(A6)			         LOCAL_COUNTER
00000A9A B0AEFF80		 CMP.L	   -128(A6),D0			         V.52
00000A9E 6F8C			 BLE.S	   L.23.3(PC)
		      *							       LINE 20/27
00000AA0 202EFF94     L.23.7	 MOVE.L	   -108(A6),D0			         LOCAL_OFFSET_LENGTH
00000AA4 4A80			 TST.L	   D0
00000AA6 6D54			 BLT.S	   L.23.12(PC)
00000AA8 0C8000000004		 CMPI.L	   #4,D0			         $4
00000AAE 6E4C			 BGT.S	   L.23.12(PC)
00000AB0 D040			 ADD.W	   D0,D0
00000AB2 303B0006		 MOVE.W	   X.23.8(PC,D0.W),D0
00000AB6 4EFB0002		 JMP	   X.23.8(PC,D0.W)
00000ABA 0000	      X.23.8	 DC.W	   L.23.13-*
00000ABC 0000			 DC.W	   L.23.8+2-*
00000ABE 0000			 DC.W	   L.23.9+4-*
00000AC0 0000			 DC.W	   L.23.10+6-*
00000AC2 0000			 DC.W	   L.23.11+8-*
		      *							       LINE 20/29
00000AC4 41EEFF90     L.23.8	 LEA	   -112(A6),A0			         LOCAL_ONE_BYTE
00000AC8 2D48FFDE		 MOVE.L	   A0,-34(A6)			         $FFFFFFDE
00000ACC 6100F8D4		 BSR.L	   B.13(PC)			         READ_ONE_BYTE = CODE.
00000AD0 6030			 BRA.S	   L.23.13(PC)
		      *							       LINE 20/30
00000AD2 41EEFF8C     L.23.9	 LEA	   -116(A6),A0			         LOCAL_TWO_BYTES
00000AD6 2D48FFB4		 MOVE.L	   A0,-76(A6)			         $FFFFFFB4
00000ADA 6100FDF0		 BSR.L	   B.14(PC)			         READ_TWO_BYTES = CODE
00000ADE 6022			 BRA.S	   L.23.13(PC)
		      *							       LINE 20/31
00000AE0 41EEFF88     L.23.10	 LEA	   -120(A6),A0			         LOCAL_THREE_BYTES
00000AE4 2D48FF7C		 MOVE.L	   A0,-132(A6)			         $FFFFFF7C
00000AE8 6100FE48		 BSR.L	   B.15(PC)			         READ_THREE_BYTES = CO
00000AEC 6014			 BRA.S	   L.23.13(PC)
		      *							       LINE 20/3200000AEE 41EEFF84     L.23.11	 LEA	   -124(A6),A0			         LOCAL_FOUR_BYTES
00000AF2 2D48FFEC		 MOVE.L	   A0,-20(A6)			         $FFFFFFEC
00000AF6 6100FB2C		 BSR.L	   B.16(PC)			         READ_FOUR_BYTES = COD
00000AFA 6006			 BRA.S	   L.23.13(PC)
00000AFC 4EB900000000 L.23.12	 JSR	   E.CASE
		      *							       LINE 20/33
		      *							       LINE 20/34
00000B02 2D6EFF94FFB0 L.23.13	 MOVE.L	   -108(A6),-80(A6)		         LOCAL_OFFSET_LENGTH  
00000B08 6100FD6E		 BSR.L	   B.21(PC)			         DECREMENT_CHECK_BYTE 
		      *							       LINE 20/35
00000B0C 4E75			 RTS	   
00000B0E 496E636F7272 K.13	 DC.B	   'Incorrect Text Record byte count.'
00000B2F 00000001		 DS.B	   1
		      *
		      *		 Begin subroutine PROCESS_TEXT_RECORD
		      *
00000B30	      B.24
		      *							       LINE 21/9
		      *							       LINE 21/10
00000B30 6100FA62     L.24.1	 BSR.L	   B.11(PC)			         CHECK_ID_FLAG = CODE.
		      *							       LINE 21/11
00000B34 6100FAB8		 BSR.L	   B.12(PC)			         CHECK_END_FLAG = CODE
		      *							       LINE 21/12
00000B38 2D7C00000001		 MOVE.L	   #1,-80(A6)			         $1  $FFFFFFB0
	 FFB0
00000B40 6100FD36		 BSR.L	   B.21(PC)			         DECREMENT_CHECK_BYTE 
		      *							       LINE 21/13
00000B44 7001	      L.24.2	 MOVEQ	   #1,D0			         $1
00000B46 2D40FFD4		 MOVE.L	   D0,-44(A6)			         LOCAL_COUNTER
00000B4A	      L.24.3
		      *							       LINE 21/13 (2)
		      *							       LINE 21/14
00000B4A 202EFFD4     L.24.4	 MOVE.L	   -44(A6),D0			         LOCAL_COUNTER
00000B4E 4A80			 TST.L	   D0
00000B50 6E06			 BGT.S	   X.24.3(PC)
00000B52 4EB900000000 X.24.4	 JSR	   E.INDEX
00000B58 7204	      X.24.3	 MOVEQ	   #4,D1			         $4
00000B5A B081			 CMP.L	   D1,D0
00000B5C 6EF4			 BGT.S	   X.24.4(PC)
00000B5E E540			 ASL.W	   #2,D0			         $2
00000B60 41EEFFC0		 LEA	   -60-4(A6),A0			         LOCAL_MAP
00000B64 41F00000		 LEA	   0(A0,D0.W),A0		         $0
00000B68 2D48FFDE		 MOVE.L	   A0,-34(A6)			         $FFFFFFDE
00000B6C 6100F834		 BSR.L	   B.13(PC)			         READ_ONE_BYTE = CODE.
		      *							       LINE 21/1500000B70 6100F7FA		 BSR.L	   B.10(PC)			         CHECK_EOF_FLAG = CODE
		      *							       LINE 21/16
00000B74 2D7C00000001		 MOVE.L	   #1,-80(A6)			         $1  $FFFFFFB0
	 FFB0
00000B7C 6100FCFA		 BSR.L	   B.21(PC)			         DECREMENT_CHECK_BYTE 
		      *							       LINE 21/17
00000B80 202EFFD4		 MOVE.L	   -44(A6),D0			         LOCAL_COUNTER
00000B84 5280			 ADDQ.L	   #1,D0			         $1
00000B86 2D40FFD4		 MOVE.L	   D0,-44(A6)			         LOCAL_COUNTER
00000B8A 7204			 MOVEQ	   #4,D1			         $4
00000B8C B081			 CMP.L	   D1,D0
00000B8E 6FBA			 BLE.S	   L.24.3(PC)
		      *							       LINE 21/18
00000B90 41EEFFC0     L.24.5	 LEA	   -64(A6),A0			         LOCAL_ESDID
00000B94 2D48FFDE		 MOVE.L	   A0,-34(A6)			         $FFFFFFDE
00000B98 6100F808		 BSR.L	   B.13(PC)			         READ_ONE_BYTE = CODE.
		      *							       LINE 21/19
00000B9C 6100F7CE		 BSR.L	   B.10(PC)			         CHECK_EOF_FLAG = CODE
		      *							       LINE 21/20
00000BA0 2D7C00000001		 MOVE.L	   #1,-80(A6)			         $1  $FFFFFFB0
	 FFB0
00000BA8 6100FCCE		 BSR.L	   B.21(PC)			         DECREMENT_CHECK_BYTE 
		      *							       LINE 21/21
00000BAC 7000			 MOVEQ	   #0,D0			         $0
00000BAE 2D40FFD4		 MOVE.L	   D0,-44(A6)			         LOCAL_COUNTER
		      *							       LINE 21/22
00000BB2 7020	      L.24.6	 MOVEQ	   #32,D0			         $20
00000BB4 B0AEFFD4		 CMP.L	   -44(A6),D0			         LOCAL_COUNTER
00000BB8 6F0000A0		 BLE.L	   L.24.12(PC)
00000BBC 4AAD000C     L.24.7	 TST.L	   STATIC.+12(A5)		         BYTE_COUNT
00000BC0 6F000098		 BLE.L	   L.24.12(PC)
		      *							       LINE 21/23
		      *							       LINE 21/24
00000BC4 2D7C00000001 L.24.8	 MOVE.L	   #1,-84(A6)			         $1  $FFFFFFAC
	 FFAC
00000BCC 202EFFD4		 MOVE.L	   -44(A6),D0			         LOCAL_COUNTER
00000BD0 C07C0007		 AND.W	   #7,D0			         $7
00000BD4 5F00			 SUBQ.B	   #7,D0			         $7
00000BD6 4400			 NEG.B	   D0
00000BD8 4A00			 TST.B	   D0
00000BDA 6C06			 BGE.S	   X.24.5(PC)
00000BDC 4EB900000000 X.24.6	 JSR	   E.VALUE
00000BE2 7207	      X.24.5	 MOVEQ	   #7,D1			         $7
00000BE4 B001			 CMP.B	   D1,D0
00000BE6 6EF4			 BGT.S	   X.24.6(PC)00000BE8 4880			 EXT.W	   D0
00000BEA 48C0			 EXT.L	   D0
00000BEC 2D40FFA8		 MOVE.L	   D0,-88(A6)			         $FFFFFFA8
00000BF0 202EFFD4		 MOVE.L	   -44(A6),D0			         LOCAL_COUNTER
00000BF4 E688			 LSR.L	   #3,D0			         $3
00000BF6 5280			 ADDQ.L	   #1,D0			         $1
00000BF8 4A00			 TST.B	   D0
00000BFA 6E06			 BGT.S	   X.24.7(PC)
00000BFC 4EB900000000 X.24.8	 JSR	   E.INDEX
00000C02 7204	      X.24.7	 MOVEQ	   #4,D1			         $4
00000C04 B001			 CMP.B	   D1,D0
00000C06 6EF4			 BGT.S	   X.24.8(PC)
00000C08 E540			 ASL.W	   #2,D0			         $2
00000C0A 41EEFFC0		 LEA	   -60-4(A6),A0			         LOCAL_MAP
00000C0E 2D700000FFA4		 MOVE.L	   0(A0,D0.W),-92(A6)		         $0  $FFFFFFA4
00000C14 41EEFE90		 LEA	   -368(A6),A0			         $FFFFFE90
00000C18 2D48FFA0		 MOVE.L	   A0,-96(A6)			         $FFFFFFA0
00000C1C 6100FB80		 BSR.L	   B.20(PC)			         GET_BITS = CODE.+$79E
00000C20 4AAEFE90		 TST.L	   -368(A6)			         $FFFFFE90
00000C24 660C			 BNE.S	   L.24.10(PC)
		      *							       LINE 21/26
00000C26 2D6EFFD4FFB8 L.24.9	 MOVE.L	   -44(A6),-72(A6)		         LOCAL_COUNTER  $FFFFF
00000C2C 6100FCEC		 BSR.L	   B.22(PC)			         PROCESS_ABSOLUTE_COD 
00000C30 600A			 BRA.S	   L.24.11(PC)
		      *							       LINE 21/28
00000C32 2D6EFFD4FFBC L.24.10	 MOVE.L	   -44(A6),-68(A6)		         LOCAL_COUNTER  $FFFFF
00000C38 6100FD5C		 BSR.L	   B.23(PC)			         PROCESS_RELOCATION_D 
		      *							       LINE 21/29
00000C3C 202EFFD4     L.24.11	 MOVE.L	   -44(A6),D0			         LOCAL_COUNTER
00000C40 5280			 ADDQ.L	   #1,D0			         $1
00000C42 4A00			 TST.B	   D0
00000C44 6C06			 BGE.S	   X.24.9(PC)
00000C46 4EB900000000 X.24.10	 JSR	   E.VALUE
00000C4C 7220	      X.24.9	 MOVEQ	   #32,D1			         $20
00000C4E B001			 CMP.B	   D1,D0
00000C50 6EF4			 BGT.S	   X.24.10(PC)
00000C52 2D40FFD4		 MOVE.L	   D0,-44(A6)			         LOCAL_COUNTER
		      *							       LINE 21/30
00000C56 6000FF5A		 BRA.L	   L.24.6(PC)
		      *							       LINE 21/31
00000C5A 4AAD000C     L.24.12	 TST.L	   STATIC.+12(A5)		         BYTE_COUNT
00000C5E 672E			 BEQ.S	   L.24.14(PC)
		      *							       LINE 21/32
00000C60 3D7C0021FE70 L.24.13	 MOVE.W	   #33,-400(A6)			         $21  $FFFFFE70
00000C66 486EFE72		 PEA	   -398(A6)			         $FFFFFE7200000C6A 3F2EFE70		 MOVE.W	   -400(A6),-(A7)		         $FFFFFE70
00000C6E 487AFE9E		 PEA	   K.13(PC)			         CODE.+$B0E
00000C72 7021			 MOVEQ	   #33,D0			         $21
00000C74 3F00			 MOVE.W	   D0,-(A7)
00000C76 4EB900000000		 JSR	   C.MVFF
00000C7C 41EEFE70		 LEA	   -400(A6),A0			         $FFFFFE70
00000C80 2D48FFFC		 MOVE.L	   A0,-4(A6)			         $FFFFFFFC
00000C84 3D7C0021FFFA		 MOVE.W	   #33,-6(A6)			         $21  $FFFFFFFA
00000C8A 6100F5EC		 BSR.L	   B.9(PC)			         ERROR = CODE.+$278
		      *							       LINE 21/33
00000C8E 4E75	      L.24.14	 RTS	   
00000C90	      K.14
		      *
		      *		 Begin subroutine ADD_ESDID_LINK
		      *
00000C90	      B.25
		      *							       LINE 22/9
		      *							       LINE 22/10
00000C90 7011	      L.25.1	 MOVEQ	   #17,D0			         $11
00000C92 2D40FFCC		 MOVE.L	   D0,-52(A6)			         LOCAL_INDEX
		      *							       LINE 22/11
00000C96 202EFFCC     L.25.2	 MOVE.L	   -52(A6),D0			         LOCAL_INDEX
00000C9A B0AD0004		 CMP.L	   STATIC.+4(A5),D0		         CURRENT_ESDID
00000C9E 6C000242		 BGE.L	   L.25.19(PC)
00000CA2 202EFFCC     L.25.3	 MOVE.L	   -52(A6),D0			         LOCAL_INDEX
00000CA6 E940			 ASL.W	   #4,D0			         $4
00000CA8 41ED0008		 LEA	   STATIC.+280-272(A5),A0	         ESDID_ARRAY
00000CAC 487AFFE2		 PEA	   K.14(PC)			         CODE.+$C90
00000CB0 4267			 CLR.W	   -(A7)
00000CB2 48700002		 PEA	   2(A0,D0.W)			         $2
00000CB6 3F300000		 MOVE.W	   0(A0,D0.W),-(A7)		         $0
00000CBA 4EB900000000		 JSR	   C.CPFF
00000CC0 67000220		 BEQ.L	   L.25.19(PC)
		      *							       LINE 22/12
		      *							       LINE 22/13
00000CC4 2D6D1008FFC8 L.25.4	 MOVE.L	   STATIC.+4104(A5),-56(A6)	         ESDID_LIST_HEAD  LOCA
		      *							       LINE 22/14
00000CCA 202EFFC8		 MOVE.L	   -56(A6),D0			         LOCAL_PREV_PTR
00000CCE 4A80			 TST.L	   D0
00000CD0 6606			 BNE.S	   X.25.3(PC)
00000CD2 4EB900000000		 JSR	   E.PTR
00000CD8 2040	      X.25.3	 MOVEA.L   D0,A0
00000CDA 2D50FFC4		 MOVE.L	   (A0),-60(A6)			         LOCAL_CURR_PTR
		      *							       LINE 22/15
00000CDE 4AAEFFC4     L.25.5	 TST.L	   -60(A6)			         LOCAL_CURR_PTR00000CE2 674E			 BEQ.S	   L.25.8(PC)
00000CE4 202EFFC4     L.25.6	 MOVE.L	   -60(A6),D0			         LOCAL_CURR_PTR
00000CE8 4A80			 TST.L	   D0
00000CEA 6606			 BNE.S	   X.25.4(PC)
00000CEC 4EB900000000		 JSR	   E.PTR
00000CF2 2040	      X.25.4	 MOVEA.L   D0,A0
00000CF4 202EFFCC		 MOVE.L	   -52(A6),D0			         LOCAL_INDEX
00000CF8 E940			 ASL.W	   #4,D0			         $4
00000CFA 43ED0008		 LEA	   STATIC.+280-272(A5),A1	         ESDID_ARRAY
00000CFE 48710002		 PEA	   2(A1,D0.W)			         $2
00000D02 3F310000		 MOVE.W	   0(A1,D0.W),-(A7)		         $0
00000D06 48680006		 PEA	   6(A0)			         $6
00000D0A 3F280004		 MOVE.W	   4(A0),-(A7)			         $4
00000D0E 4EB900000000		 JSR	   C.CPFF
00000D14 6C1C			 BGE.S	   L.25.8(PC)
		      *							       LINE 22/16
		      *							       LINE 22/17
00000D16 2D6EFFC4FFC8 L.25.7	 MOVE.L	   -60(A6),-56(A6)		         LOCAL_CURR_PTR  LOCAL
		      *							       LINE 22/18
00000D1C 202EFFC8		 MOVE.L	   -56(A6),D0			         LOCAL_PREV_PTR
00000D20 4A80			 TST.L	   D0
00000D22 6606			 BNE.S	   X.25.5(PC)
00000D24 4EB900000000		 JSR	   E.PTR
00000D2A 2040	      X.25.5	 MOVEA.L   D0,A0
00000D2C 2D50FFC4		 MOVE.L	   (A0),-60(A6)			         LOCAL_CURR_PTR
		      *							       LINE 22/19
00000D30 60AC			 BRA.S	   L.25.5(PC)
		      *							       LINE 22/20
00000D32 4AAEFFC4     L.25.8	 TST.L	   -60(A6)			         LOCAL_CURR_PTR
00000D36 66000086		 BNE.L	   L.25.11(PC)
		      *							       LINE 22/20 (2)
		      *							       LINE 22/21
00000D3A 7014	      L.25.9	 MOVEQ	   #20,D0			         $14
00000D3C 2F00			 MOVE.L	   D0,-(A7)
00000D3E 4EB900000000		 JSR	   H.NEW
00000D44 2D5FFFC4		 MOVE.L	   (A7)+,-60(A6)		         LOCAL_CURR_PTR
		      *							       LINE 22/22
00000D48 202EFFC4		 MOVE.L	   -60(A6),D0			         LOCAL_CURR_PTR
00000D4C 4A80			 TST.L	   D0
00000D4E 6606			 BNE.S	   X.25.6(PC)
00000D50 4EB900000000		 JSR	   E.PTR
00000D56 2040	      X.25.6	 MOVEA.L   D0,A0
00000D58 2D48FFBC		 MOVE.L	   A0,X.25.2(A6)
00000D5C 202EFFCC		 MOVE.L	   -52(A6),D0			         LOCAL_INDEX
00000D60 E940			 ASL.W	   #4,D0			         $400000D62 41ED0008		 LEA	   STATIC.+280-272(A5),A0	         ESDID_ARRAY
00000D66 43F00000		 LEA	   0(A0,D0.W),A1		         $0
00000D6A 2D49FFC0		 MOVE.L	   A1,X.25.2+4(A6)
		      *							       LINE 22/22 (2)
		      *							       LINE 22/23
00000D6E 206EFFBC     L.25.10	 MOVEA.L   X.25.2(A6),A0
00000D72 7000			 MOVEQ	   #0,D0			         $0
00000D74 2080			 MOVE.L	   D0,(A0)
		      *							       LINE 22/24
00000D76 206EFFC0		 MOVEA.L   X.25.2+4(A6),A0
00000D7A 226EFFBC		 MOVEA.L   X.25.2(A6),A1
00000D7E 3010			 MOVE.W	   (A0),D0
00000D80 41D0			 LEA	   (A0),A0
00000D82 43E90004		 LEA	   4(A1),A1			         $4
00000D86 5240			 ADDQ.W	   #1,D0			         $1
00000D88 E248			 LSR.W	   #1,D0			         $1
00000D8A 32D8	      X.25.7	 MOVE.W	   (A0)+,(A1)+
00000D8C 51C8FFFC		 DBF	   D0,X.25.7(PC)
		      *							       LINE 22/25
00000D90 206EFFBC		 MOVEA.L   X.25.2(A6),A0
00000D94 226EFFC0		 MOVEA.L   X.25.2+4(A6),A1
00000D98 2169000C0010		 MOVE.L	   12(A1),16(A0)		         $C  $10
		      *							       LINE 22/26
00000D9E 206EFFC0		 MOVEA.L   X.25.2+4(A6),A0
00000DA2 206EFFBC		 MOVEA.L   X.25.2(A6),A0
		      *							       LINE 22/27
00000DA6 202EFFC8		 MOVE.L	   -56(A6),D0			         LOCAL_PREV_PTR
00000DAA 4A80			 TST.L	   D0
00000DAC 6606			 BNE.S	   X.25.8(PC)
00000DAE 4EB900000000		 JSR	   E.PTR
00000DB4 2040	      X.25.8	 MOVEA.L   D0,A0
00000DB6 20AEFFC4		 MOVE.L	   -60(A6),(A0)			         LOCAL_CURR_PTR
		      *							       LINE 22/28
00000DBA 60000106		 BRA.L	   L.25.18(PC)
00000DBE	      L.25.11
		      *							       LINE 22/29
		      *							       LINE 22/30
00000DBE 202EFFC4     L.25.12	 MOVE.L	   -60(A6),D0			         LOCAL_CURR_PTR
00000DC2 4A80			 TST.L	   D0
00000DC4 6606			 BNE.S	   X.25.9(PC)
00000DC6 4EB900000000		 JSR	   E.PTR
00000DCC 2040	      X.25.9	 MOVEA.L   D0,A0
00000DCE 202EFFCC		 MOVE.L	   -52(A6),D0			         LOCAL_INDEX
00000DD2 E940			 ASL.W	   #4,D0			         $4
00000DD4 43ED0008		 LEA	   STATIC.+280-272(A5),A1	         ESDID_ARRAY00000DD8 48710002		 PEA	   2(A1,D0.W)			         $2
00000DDC 3F310000		 MOVE.W	   0(A1,D0.W),-(A7)		         $0
00000DE0 48680006		 PEA	   6(A0)			         $6
00000DE4 3F280004		 MOVE.W	   4(A0),-(A7)			         $4
00000DE8 4EB900000000		 JSR	   C.CPFF
00000DEE 6644			 BNE.S	   L.25.14(PC)
		      *							       LINE 22/31
00000DF0 202EFFC4     L.25.13	 MOVE.L	   -60(A6),D0			         LOCAL_CURR_PTR
00000DF4 4A80			 TST.L	   D0
00000DF6 6606			 BNE.S	   X.25.10(PC)
00000DF8 4EB900000000		 JSR	   E.PTR
00000DFE 2040	      X.25.10	 MOVEA.L   D0,A0
00000E00 202EFFC4		 MOVE.L	   -60(A6),D0			         LOCAL_CURR_PTR
00000E04 4A80			 TST.L	   D0
00000E06 6606			 BNE.S	   X.25.11(PC)
00000E08 4EB900000000		 JSR	   E.PTR
00000E0E 2240	      X.25.11	 MOVEA.L   D0,A1
00000E10 202EFFCC		 MOVE.L	   -52(A6),D0			         LOCAL_INDEX
00000E14 E940			 ASL.W	   #4,D0			         $4
00000E16 45ED0008		 LEA	   STATIC.+280-272(A5),A2	         ESDID_ARRAY
00000E1A 22290010		 MOVE.L	   16(A1),D1			         $10
00000E1E D2B2000C		 ADD.L	   12(A2,D0.W),D1		         $C
00000E22 4A81			 TST.L	   D1
00000E24 6C06			 BGE.S	   X.25.12(PC)
00000E26 4EB900000000		 JSR	   E.VALUE
00000E2C 21410010     X.25.12	 MOVE.L	   D1,16(A0)			         $10
00000E30 60000090		 BRA.L	   L.25.17(PC)
00000E34	      L.25.14
		      *							       LINE 22/33
		      *							       LINE 22/34
00000E34 7014	      L.25.15	 MOVEQ	   #20,D0			         $14
00000E36 2F00			 MOVE.L	   D0,-(A7)
00000E38 4EB900000000		 JSR	   H.NEW
00000E3E 2D5FFFC4		 MOVE.L	   (A7)+,-60(A6)		         LOCAL_CURR_PTR
		      *							       LINE 22/35
00000E42 202EFFC4		 MOVE.L	   -60(A6),D0			         LOCAL_CURR_PTR
00000E46 4A80			 TST.L	   D0
00000E48 6606			 BNE.S	   X.25.13(PC)
00000E4A 4EB900000000		 JSR	   E.PTR
00000E50 2040	      X.25.13	 MOVEA.L   D0,A0
00000E52 2D48FFBC		 MOVE.L	   A0,X.25.2(A6)
00000E56 202EFFCC		 MOVE.L	   -52(A6),D0			         LOCAL_INDEX
00000E5A E940			 ASL.W	   #4,D0			         $4
00000E5C 41ED0008		 LEA	   STATIC.+280-272(A5),A0	         ESDID_ARRAY
00000E60 43F00000		 LEA	   0(A0,D0.W),A1		         $000000E64 2D49FFC0		 MOVE.L	   A1,X.25.2+4(A6)
		      *							       LINE 22/35 (2)
		      *							       LINE 22/36
00000E68 206EFFBC     L.25.16	 MOVEA.L   X.25.2(A6),A0
00000E6C 202EFFC8		 MOVE.L	   -56(A6),D0			         LOCAL_PREV_PTR
00000E70 4A80			 TST.L	   D0
00000E72 6606			 BNE.S	   X.25.14(PC)
00000E74 4EB900000000		 JSR	   E.PTR
00000E7A 2240	      X.25.14	 MOVEA.L   D0,A1
00000E7C 2091			 MOVE.L	   (A1),(A0)
		      *							       LINE 22/37
00000E7E 206EFFC0		 MOVEA.L   X.25.2+4(A6),A0
00000E82 226EFFBC		 MOVEA.L   X.25.2(A6),A1
00000E86 3010			 MOVE.W	   (A0),D0
00000E88 41D0			 LEA	   (A0),A0
00000E8A 43E90004		 LEA	   4(A1),A1			         $4
00000E8E 5240			 ADDQ.W	   #1,D0			         $1
00000E90 E248			 LSR.W	   #1,D0			         $1
00000E92 32D8	      X.25.15	 MOVE.W	   (A0)+,(A1)+
00000E94 51C8FFFC		 DBF	   D0,X.25.15(PC)
		      *							       LINE 22/38
00000E98 206EFFBC		 MOVEA.L   X.25.2(A6),A0
00000E9C 226EFFC0		 MOVEA.L   X.25.2+4(A6),A1
00000EA0 2169000C0010		 MOVE.L	   12(A1),16(A0)		         $C  $10
		      *							       LINE 22/39
00000EA6 206EFFC0		 MOVEA.L   X.25.2+4(A6),A0
00000EAA 206EFFBC		 MOVEA.L   X.25.2(A6),A0
		      *							       LINE 22/40
00000EAE 202EFFC8		 MOVE.L	   -56(A6),D0			         LOCAL_PREV_PTR
00000EB2 4A80			 TST.L	   D0
00000EB4 6606			 BNE.S	   X.25.16(PC)
00000EB6 4EB900000000		 JSR	   E.PTR
00000EBC 2040	      X.25.16	 MOVEA.L   D0,A0
00000EBE 20AEFFC4		 MOVE.L	   -60(A6),(A0)			         LOCAL_CURR_PTR
00000EC2	      L.25.17
		      *							       LINE 22/41
		      *							       LINE 22/42
		      *							       LINE 22/43
00000EC2 202EFFCC     L.25.18	 MOVE.L	   -52(A6),D0			         LOCAL_INDEX
00000EC6 5280			 ADDQ.L	   #1,D0			         $1
00000EC8 7211			 MOVEQ	   #17,D1			         $11
00000ECA B041			 CMP.W	   D1,D0
00000ECC 6C06			 BGE.S	   X.25.17(PC)
00000ECE 4EB900000000 X.25.18	 JSR	   E.VALUE
00000ED4 0C4000FF     X.25.17	 CMPI.W	   #255,D0			         $FF00000ED8 6EF4			 BGT.S	   X.25.18(PC)
00000EDA 2D40FFCC		 MOVE.L	   D0,-52(A6)			         LOCAL_INDEX
		      *							       LINE 22/44
00000EDE 6000FDB6		 BRA.L	   L.25.2(PC)
		      *							       LINE 22/45
00000EE2 4E75	      L.25.19	 RTS	   
		      *
		      *		 Begin subroutine PROCESS_END_RECORD
		      *
00000EE4	      B.26
		      *							       LINE 23/8
		      *							       LINE 23/9
00000EE4 6100F6AE     L.26.1	 BSR.L	   B.11(PC)			         CHECK_ID_FLAG = CODE.
		      *							       LINE 23/10
00000EE8 41EEFFD4		 LEA	   -44(A6),A0			         LOCAL_ONE_BYTE
00000EEC 2D48FFDE		 MOVE.L	   A0,-34(A6)			         $FFFFFFDE
00000EF0 6100F4B0		 BSR.L	   B.13(PC)			         READ_ONE_BYTE = CODE.
		      *							       LINE 23/11
00000EF4 6100F476		 BSR.L	   B.10(PC)			         CHECK_EOF_FLAG = CODE
		      *							       LINE 23/12
00000EF8 7011			 MOVEQ	   #17,D0			         $11
00000EFA B0AEFFD4		 CMP.L	   -44(A6),D0			         LOCAL_ONE_BYTE
00000EFE 6F0C			 BLE.S	   L.26.3(PC)
		      *							       LINE 23/13
00000F00 41EEFFD0     L.26.2	 LEA	   -48(A6),A0			         LOCAL_FOUR_BYTES
00000F04 2D48FFEC		 MOVE.L	   A0,-20(A6)			         $FFFFFFEC
00000F08 6100F71A		 BSR.L	   B.16(PC)			         READ_FOUR_BYTES = COD
		      *							       LINE 23/14
00000F0C 7001	      L.26.3	 MOVEQ	   #1,D0			         $1
00000F0E 1B400003		 MOVE.B	   D0,STATIC.+3(A5)		         END_FLAG
		      *							       LINE 23/15
00000F12 6100FD7C		 BSR.L	   B.25(PC)			         ADD_ESDID_LINK = CODE
		      *							       LINE 23/16
00000F16 4E75			 RTS	   
00000F18 496C6C656761 K.15	 DC.B	   'Illegal record type.'
00000F2C 4D697373696E K.16	 DC.B	   'Missing Identification Record.'
00000F4A 4D697373696E K.17	 DC.B	   'Missing End Record.'
00000F5D 00000001		 DS.B	   1
		      *
		      *		 Begin subroutine PROCESS_INPUT
		      *
00000F5E	      B.27
		      *							       LINE 24/7
		      *							       LINE 24/8
00000F5E 41ED000C     L.27.1	 LEA	   STATIC.+12(A5),A0		         BYTE_COUNT00000F62 2D48FFDE		 MOVE.L	   A0,-34(A6)			         $FFFFFFDE
00000F66 6100F43A		 BSR.L	   B.13(PC)			         READ_ONE_BYTE = CODE.
		      *							       LINE 24/9
00000F6A 4A2D0000     L.27.2	 TST.B	   STATIC.+0(A5)		         EOF_FLAG
00000F6E 66000094		 BNE.L	   L.27.12(PC)
		      *							       LINE 24/9 (2)
		      *							       LINE 24/10
00000F72 4AAD000C     L.27.3	 TST.L	   STATIC.+12(A5)		         BYTE_COUNT
00000F76 6F7C			 BLE.S	   L.27.11(PC)
		      *							       LINE 24/10 (2)
		      *							       LINE 24/11
00000F78 41EEFFF0     L.27.4	 LEA	   -16(A6),A0			         LOCAL_ONE_BYTE
00000F7C 2D48FFDE		 MOVE.L	   A0,-34(A6)			         $FFFFFFDE
00000F80 6100F420		 BSR.L	   B.13(PC)			         READ_ONE_BYTE = CODE.
		      *							       LINE 24/12
00000F84 6100F3E6		 BSR.L	   B.10(PC)			         CHECK_EOF_FLAG = CODE
		      *							       LINE 24/13
00000F88 202EFFF0		 MOVE.L	   -16(A6),D0			         LOCAL_ONE_BYTE
00000F8C 90BC00000031		 SUB.L	   #49,D0			         $31
00000F92 6D32			 BLT.S	   L.27.9(PC)
00000F94 0C8000000003		 CMPI.L	   #3,D0			         $3
00000F9A 6E2A			 BGT.S	   L.27.9(PC)
00000F9C D040			 ADD.W	   D0,D0
00000F9E 303B0006		 MOVE.W	   X.27.3(PC,D0.W),D0
00000FA2 4EFB0002		 JMP	   X.27.3(PC,D0.W)
00000FA6 0000	      X.27.3	 DC.W	   L.27.5-*
00000FA8 0000			 DC.W	   L.27.6+2-*
00000FAA 0000			 DC.W	   L.27.7+4-*
00000FAC 0000			 DC.W	   L.27.8+6-*
		      *							       LINE 24/14
00000FAE 6100F572     L.27.5	 BSR.L	   B.18(PC)			         PROCESS_IDENTIFICATI 
00000FB2 6040			 BRA.S	   L.27.10(PC)
		      *							       LINE 24/15
00000FB4 6100F6E2     L.27.6	 BSR.L	   B.19(PC)			         PROCESS_ESD_RECORD = 
00000FB8 603A			 BRA.S	   L.27.10(PC)
		      *							       LINE 24/16
00000FBA 6100FB74     L.27.7	 BSR.L	   B.24(PC)			         PROCESS_TEXT_RECORD =
00000FBE 6034			 BRA.S	   L.27.10(PC)
		      *							       LINE 24/17
00000FC0 6100FF22     L.27.8	 BSR.L	   B.26(PC)			         PROCESS_END_RECORD = 
00000FC4 602E			 BRA.S	   L.27.10(PC)
		      *							       LINE 24/18
00000FC6 3D7C0014FE5A L.27.9	 MOVE.W	   #20,-422(A6)			         $14  $FFFFFE5A
00000FCC 486EFE5C		 PEA	   -420(A6)			         $FFFFFE5C
00000FD0 3F2EFE5A		 MOVE.W	   -422(A6),-(A7)		         $FFFFFE5A00000FD4 487AFF42		 PEA	   K.15(PC)			         CODE.+$F18
00000FD8 7014			 MOVEQ	   #20,D0			         $14
00000FDA 3F00			 MOVE.W	   D0,-(A7)
00000FDC 4EB900000000		 JSR	   C.MVFF
00000FE2 41EEFE5A		 LEA	   -422(A6),A0			         $FFFFFE5A
00000FE6 2D48FFFC		 MOVE.L	   A0,-4(A6)			         $FFFFFFFC
00000FEA 3D7C0014FFFA		 MOVE.W	   #20,-6(A6)			         $14  $FFFFFFFA
00000FF0 6100F286		 BSR.L	   B.9(PC)			         ERROR = CODE.+$278
00000FF4	      L.27.10
		      *							       LINE 24/20
		      *							       LINE 24/21
00000FF4 41ED000C     L.27.11	 LEA	   STATIC.+12(A5),A0		         BYTE_COUNT
00000FF8 2D48FFDE		 MOVE.L	   A0,-34(A6)			         $FFFFFFDE
00000FFC 6100F3A4		 BSR.L	   B.13(PC)			         READ_ONE_BYTE = CODE.
		      *							       LINE 24/22
00001000 6000FF68		 BRA.L	   L.27.2(PC)
		      *							       LINE 24/23
00001004 4A2D0002     L.27.12	 TST.B	   STATIC.+2(A5)		         ID_FLAG
00001008 662E			 BNE.S	   L.27.14(PC)
		      *							       LINE 24/24
0000100A 3D7C001EFE50 L.27.13	 MOVE.W	   #30,-432(A6)			         $1E  $FFFFFE50
00001010 486EFE52		 PEA	   -430(A6)			         $FFFFFE52
00001014 3F2EFE50		 MOVE.W	   -432(A6),-(A7)		         $FFFFFE50
00001018 487AFF12		 PEA	   K.16(PC)			         CODE.+$F2C
0000101C 701E			 MOVEQ	   #30,D0			         $1E
0000101E 3F00			 MOVE.W	   D0,-(A7)
00001020 4EB900000000		 JSR	   C.MVFF
00001026 41EEFE50		 LEA	   -432(A6),A0			         $FFFFFE50
0000102A 2D48FFDA		 MOVE.L	   A0,-38(A6)			         $FFFFFFDA
0000102E 3D7C001EFFD8		 MOVE.W	   #30,-40(A6)			         $1E  $FFFFFFD8
00001034 6100F14A		 BSR.L	   B.8(PC)			         WARNING = CODE.+$180
		      *							       LINE 24/25
00001038 4A2D0003     L.27.14	 TST.B	   STATIC.+3(A5)		         END_FLAG
0000103C 662E			 BNE.S	   L.27.16(PC)
		      *							       LINE 24/26
0000103E 3D7C0013FE5A L.27.15	 MOVE.W	   #19,-422(A6)			         $13  $FFFFFE5A
00001044 486EFE5C		 PEA	   -420(A6)			         $FFFFFE5C
00001048 3F2EFE5A		 MOVE.W	   -422(A6),-(A7)		         $FFFFFE5A
0000104C 487AFEFC		 PEA	   K.17(PC)			         CODE.+$F4A
00001050 7013			 MOVEQ	   #19,D0			         $13
00001052 3F00			 MOVE.W	   D0,-(A7)
00001054 4EB900000000		 JSR	   C.MVFF
0000105A 41EEFE5A		 LEA	   -422(A6),A0			         $FFFFFE5A
0000105E 2D48FFDA		 MOVE.L	   A0,-38(A6)			         $FFFFFFDA
00001062 3D7C0013FFD8		 MOVE.W	   #19,-40(A6)			         $13  $FFFFFFD800001068 6100F116		 BSR.L	   B.8(PC)			         WARNING = CODE.+$180
		      *							       LINE 24/27
0000106C 4E75	      L.27.16	 RTS	   
		      *
		      *		 Begin subroutine CONVERT_DECIMAL
		      *
0000106E	      B.6
		      *							       LINE 4/4
		      *							       LINE 4/5
0000106E 206EFFE0     L.6.1	 MOVEA.L   -32(A6),A0			         CONVERT_DECIMAL
00001072 426EFFD4		 CLR.W	   -44(A6)			         $FFFFFFD4
00001076 3D7C000AFFD2		 MOVE.W	   #10,-46(A6)			         $A  $FFFFFFD2
0000107C 426EFFD0		 CLR.W	   -48(A6)			         $FFFFFFD0
00001080 43EEFFD4		 LEA	   -44(A6),A1			         $FFFFFFD4
00001084 2D49FFCC		 MOVE.L	   A1,-52(A6)			         $FFFFFFCC
00001088 42A7			 CLR.L	   -(A7)
0000108A 7010			 MOVEQ	   #16,D0			         $10
0000108C 3F00			 MOVE.W	   D0,-(A7)
0000108E 486EFFE4		 PEA	   -28(A6)			         INPUT_NUMBER
00001092 486EFFCC		 PEA	   -52(A6)			         $FFFFFFCC
00001096 4EB900000000		 JSR	   I.PTSTRV
0000109C 30AEFFD4		 MOVE.W	   -44(A6),(A0)			         $FFFFFFD4
000010A0 48680002		 PEA	   2(A0)			         $2
000010A4 700A			 MOVEQ	   #10,D0			         $A
000010A6 3F00			 MOVE.W	   D0,-(A7)
000010A8 486EFFD6		 PEA	   -42(A6)			         $FFFFFFD6
000010AC 3F2EFFD4		 MOVE.W	   -44(A6),-(A7)		         $FFFFFFD4
000010B0 4EB900000000		 JSR	   C.MVFF
		      *							       LINE 4/6
000010B6 4E75			 RTS	   
000010B8 52756E74696D K.18	 DC.B	   'Runtime Statistics:'
000010CB 00000001		 DS.B	   1
000010CC	      K.19
000010CC 4E616D652020 K.20	 DC.B	   'Name        Calls'
000010DD 00000001		 DS.B	   1
000010DE 2D2D2D2D2D2D K.21	 DC.B	   '----------  -----'
000010EF 00000001		 DS.B	   1
000010F0	      K.22
000010F0 2020	      K.23	 DC.B	   '  '
000010F2	      K.24
000010F2	      K.25
000010F2 546F74616C20 K.26	 DC.B	   'Total number of names = '
0000110A 546F74616C20 K.27	 DC.B	   'Total number of calls = '
00001122 417665726167 K.28	 DC.B	   'Average calls/name = '
00001137 00000001		 DS.B	   1		      *
		      *		 Begin subroutine PRINT_ESDID_STATISTICS
		      *
00001138 2D4FFE98     B.28	 MOVE.L	   A7,X.28.1(A6)
		      *							       LINE 25/9
		      *							       LINE 25/10
0000113C 3D7C0013FEB4 L.28.1	 MOVE.W	   #19,-332(A6)			         $13  $FFFFFEB4
00001142 486EFEB6		 PEA	   -330(A6)			         $FFFFFEB6
00001146 3F2EFEB4		 MOVE.W	   -332(A6),-(A7)		         $FFFFFEB4
0000114A 487AFF6C		 PEA	   K.18(PC)			         CODE.+$10B8
0000114E 7013			 MOVEQ	   #19,D0			         $13
00001150 3F00			 MOVE.W	   D0,-(A7)
00001152 4EB900000000		 JSR	   C.MVFF
00001158 41EEFEB4		 LEA	   -332(A6),A0			         $FFFFFEB4
0000115C 2D48FFF6		 MOVE.L	   A0,-10(A6)			         $FFFFFFF6
00001160 3D7C0013FFF4		 MOVE.W	   #19,-12(A6)			         $13  $FFFFFFF4
00001166 6100EF82		 BSR.L	   B.5(PC)			         WRITE_STRING = CODE.+
		      *							       LINE 25/11
0000116A 426EFEC8		 CLR.W	   -312(A6)			         $FFFFFEC8
0000116E 41EEFEC8		 LEA	   -312(A6),A0			         $FFFFFEC8
00001172 2D48FFF6		 MOVE.L	   A0,-10(A6)			         $FFFFFFF6
00001176 426EFFF4		 CLR.W	   -12(A6)			         $FFFFFFF4
0000117A 6100EF6E		 BSR.L	   B.5(PC)			         WRITE_STRING = CODE.+
		      *							       LINE 25/12
0000117E 3D7C0011FEB6		 MOVE.W	   #17,-330(A6)			         $11  $FFFFFEB6
00001184 486EFEB8		 PEA	   -328(A6)			         $FFFFFEB8
00001188 3F2EFEB6		 MOVE.W	   -330(A6),-(A7)		         $FFFFFEB6
0000118C 487AFF3E		 PEA	   K.20(PC)			         CODE.+$10CC
00001190 7011			 MOVEQ	   #17,D0			         $11
00001192 3F00			 MOVE.W	   D0,-(A7)
00001194 4EB900000000		 JSR	   C.MVFF
0000119A 41EEFEB6		 LEA	   -330(A6),A0			         $FFFFFEB6
0000119E 2D48FFF6		 MOVE.L	   A0,-10(A6)			         $FFFFFFF6
000011A2 3D7C0011FFF4		 MOVE.W	   #17,-12(A6)			         $11  $FFFFFFF4
000011A8 6100EF40		 BSR.L	   B.5(PC)			         WRITE_STRING = CODE.+
		      *							       LINE 25/13
000011AC 3D7C0011FEB6		 MOVE.W	   #17,-330(A6)			         $11  $FFFFFEB6
000011B2 486EFEB8		 PEA	   -328(A6)			         $FFFFFEB8
000011B6 3F2EFEB6		 MOVE.W	   -330(A6),-(A7)		         $FFFFFEB6
000011BA 487AFF22		 PEA	   K.21(PC)			         CODE.+$10DE
000011BE 7011			 MOVEQ	   #17,D0			         $11
000011C0 3F00			 MOVE.W	   D0,-(A7)
000011C2 4EB900000000		 JSR	   C.MVFF
000011C8 41EEFEB6		 LEA	   -330(A6),A0			         $FFFFFEB6
000011CC 2D48FFF6		 MOVE.L	   A0,-10(A6)			         $FFFFFFF6000011D0 3D7C0011FFF4		 MOVE.W	   #17,-12(A6)			         $11  $FFFFFFF4
000011D6 6100EF12		 BSR.L	   B.5(PC)			         WRITE_STRING = CODE.+
		      *							       LINE 25/14
000011DA 426EFEC8		 CLR.W	   -312(A6)			         $FFFFFEC8
000011DE 41EEFEC8		 LEA	   -312(A6),A0			         $FFFFFEC8
000011E2 2D48FFF6		 MOVE.L	   A0,-10(A6)			         $FFFFFFF6
000011E6 426EFFF4		 CLR.W	   -12(A6)			         $FFFFFFF4
000011EA 6100EEFE		 BSR.L	   B.5(PC)			         WRITE_STRING = CODE.+
		      *							       LINE 25/15
000011EE 7000			 MOVEQ	   #0,D0			         $0
000011F0 2D40FFEC		 MOVE.L	   D0,-20(A6)			         LOCAL_NUM_NAMES
		      *							       LINE 25/16
000011F4 7000			 MOVEQ	   #0,D0			         $0
000011F6 2D40FFE8		 MOVE.L	   D0,-24(A6)			         LOCAL_NUM_CALLS
		      *							       LINE 25/17
000011FA 202D1008		 MOVE.L	   STATIC.+4104(A5),D0		         ESDID_LIST_HEAD
000011FE 4A80			 TST.L	   D0
00001200 6606			 BNE.S	   X.28.3(PC)
00001202 4EB900000000		 JSR	   E.PTR
00001208 2040	      X.28.3	 MOVEA.L   D0,A0
0000120A 2D50FFF0		 MOVE.L	   (A0),-16(A6)			         LOCAL_PTR
0000120E 2E6EFE98     L.28.2	 MOVEA.L   X.28.1(A6),A7
		      *							       LINE 25/18
00001212 4AAEFFF0		 TST.L	   -16(A6)			         LOCAL_PTR
00001216 670000E2		 BEQ.L	   L.28.5(PC)
		      *							       LINE 25/18 (2)
		      *							       LINE 25/19
0000121A 202EFFF0     L.28.3	 MOVE.L	   -16(A6),D0			         LOCAL_PTR
0000121E 4A80			 TST.L	   D0
00001220 6606			 BNE.S	   X.28.4(PC)
00001222 4EB900000000		 JSR	   E.PTR
00001228 2040	      X.28.4	 MOVEA.L   D0,A0
0000122A 2D48FE94		 MOVE.L	   A0,X.28.2(A6)
		      *							       LINE 25/19 (2)
		      *							       LINE 25/20
0000122E 206EFE94     L.28.4	 MOVEA.L   X.28.2(A6),A0
00001232 30280004		 MOVE.W	   4(A0),D0			         $4
00001236 226EFE94		 MOVEA.L   X.28.2(A6),A1
0000123A 2D690010FFE4		 MOVE.L	   16(A1),-28(A6)		         $10  $FFFFFFE4
00001240 43EEFEBE		 LEA	   -322(A6),A1			         $FFFFFEBE
00001244 2D49FFE0		 MOVE.L	   A1,-32(A6)			         $FFFFFFE0
00001248 48EE0101FEB6		 MOVEM.L   #257,-330(A6)		         $101  $FFFFFEB6
0000124E 6100FE1E		 BSR.L	   B.6(PC)			         CONVERT_DECIMAL = COD
00001252 4CEE0101FEB6		 MOVEM.L   -330(A6),#257		         $FFFFFEB6  $101
00001258 D06EFEBE		 ADD.W	   -322(A6),D0			         $FFFFFEBE0000125C 5440			 ADDQ.W	   #2,D0			         $2
0000125E 486EFEA0		 PEA	   -352(A6)			         $FFFFFEA0
00001262 7216			 MOVEQ	   #22,D1			         $16
00001264 3F01			 MOVE.W	   D1,-(A7)
00001266 48680006		 PEA	   6(A0)			         $6
0000126A 3F280004		 MOVE.W	   4(A0),-(A7)			         $4
0000126E 4EB900000000		 JSR	   C.MVFF
00001274 487AFE7A		 PEA	   K.23(PC)			         CODE.+$10F0
00001278 7202			 MOVEQ	   #2,D1			         $2
0000127A 3F01			 MOVE.W	   D1,-(A7)
0000127C 4EB900000000		 JSR	   C.MVFR
00001282 486EFEC0		 PEA	   -320(A6)			         $FFFFFEC0
00001286 3F2EFEBE		 MOVE.W	   -322(A6),-(A7)		         $FFFFFEBE
0000128A 4EB900000000		 JSR	   C.MVFR
00001290 3200			 MOVE.W	   D0,D1
00001292 5441			 ADDQ.W	   #2,D1			         $2
00001294 4841			 SWAP	   D1
00001296 4241			 CLR.W	   D1
00001298 4841			 SWAP	   D1
0000129A 2F01			 MOVE.L	   D1,-(A7)
0000129C 4EB900000000		 JSR	   M.DYNTMB
000012A2 204F			 MOVEA.L   A7,A0
000012A4 3080			 MOVE.W	   D0,(A0)
000012A6 48680002		 PEA	   2(A0)			         $2
000012AA 3F10			 MOVE.W	   (A0),-(A7)
000012AC 486EFEA0		 PEA	   -352(A6)			         $FFFFFEA0
000012B0 3F00			 MOVE.W	   D0,-(A7)
000012B2 4EB900000000		 JSR	   C.MVFF
000012B8 2D48FFF6		 MOVE.L	   A0,-10(A6)			         $FFFFFFF6
000012BC 3D40FFF4		 MOVE.W	   D0,-12(A6)			         $FFFFFFF4
000012C0 6100EE28		 BSR.L	   B.5(PC)			         WRITE_STRING = CODE.+
		      *							       LINE 25/21
000012C4 202EFFEC		 MOVE.L	   -20(A6),D0			         LOCAL_NUM_NAMES
000012C8 5280			 ADDQ.L	   #1,D0			         $1
000012CA 2D40FFEC		 MOVE.L	   D0,-20(A6)			         LOCAL_NUM_NAMES
		      *							       LINE 25/22
000012CE 206EFE94		 MOVEA.L   X.28.2(A6),A0
000012D2 202EFFE8		 MOVE.L	   -24(A6),D0			         LOCAL_NUM_CALLS
000012D6 D0A80010		 ADD.L	   16(A0),D0			         $10
000012DA 2D40FFE8		 MOVE.L	   D0,-24(A6)			         LOCAL_NUM_CALLS
		      *							       LINE 25/23
000012DE 206EFE94		 MOVEA.L   X.28.2(A6),A0
		      *							       LINE 25/24
000012E2 202EFFF0		 MOVE.L	   -16(A6),D0			         LOCAL_PTR
000012E6 4A80			 TST.L	   D0000012E8 6606			 BNE.S	   X.28.5(PC)
000012EA 4EB900000000		 JSR	   E.PTR
000012F0 2040	      X.28.5	 MOVEA.L   D0,A0
000012F2 2D50FFF0		 MOVE.L	   (A0),-16(A6)			         LOCAL_PTR
		      *							       LINE 25/25
000012F6 6000FF16		 BRA.L	   L.28.2(PC)
		      *							       LINE 25/26
000012FA 426EFEC8     L.28.5	 CLR.W	   -312(A6)			         $FFFFFEC8
000012FE 41EEFEC8		 LEA	   -312(A6),A0			         $FFFFFEC8
00001302 2D48FFF6		 MOVE.L	   A0,-10(A6)			         $FFFFFFF6
00001306 426EFFF4		 CLR.W	   -12(A6)			         $FFFFFFF4
0000130A 6100EDDE		 BSR.L	   B.5(PC)			         WRITE_STRING = CODE.+
		      *							       LINE 25/27
0000130E 426EFEC8		 CLR.W	   -312(A6)			         $FFFFFEC8
00001312 41EEFEC8		 LEA	   -312(A6),A0			         $FFFFFEC8
00001316 2D48FFF6		 MOVE.L	   A0,-10(A6)			         $FFFFFFF6
0000131A 426EFFF4		 CLR.W	   -12(A6)			         $FFFFFFF4
0000131E 6100EDCA		 BSR.L	   B.5(PC)			         WRITE_STRING = CODE.+
		      *							       LINE 25/28
00001322 2D6EFFECFFE4		 MOVE.L	   -20(A6),-28(A6)		         LOCAL_NUM_NAMES  $FFF
00001328 41EEFEBE		 LEA	   -322(A6),A0			         $FFFFFEBE
0000132C 2D48FFE0		 MOVE.L	   A0,-32(A6)			         $FFFFFFE0
00001330 6100FD3C		 BSR.L	   B.6(PC)			         CONVERT_DECIMAL = COD
00001334 302EFEBE		 MOVE.W	   -322(A6),D0			         $FFFFFEBE
00001338 D07C0018		 ADD.W	   #24,D0			         $18
0000133C 486EFE9C		 PEA	   -356(A6)			         $FFFFFE9C
00001340 7222			 MOVEQ	   #34,D1			         $22
00001342 3F01			 MOVE.W	   D1,-(A7)
00001344 487AFDAC		 PEA	   K.26(PC)			         CODE.+$10F2
00001348 7218			 MOVEQ	   #24,D1			         $18
0000134A 3F01			 MOVE.W	   D1,-(A7)
0000134C 4EB900000000		 JSR	   C.MVFF
00001352 486EFEC0		 PEA	   -320(A6)			         $FFFFFEC0
00001356 3F2EFEBE		 MOVE.W	   -322(A6),-(A7)		         $FFFFFEBE
0000135A 4EB900000000		 JSR	   C.MVFR
00001360 3200			 MOVE.W	   D0,D1
00001362 5441			 ADDQ.W	   #2,D1			         $2
00001364 4841			 SWAP	   D1
00001366 4241			 CLR.W	   D1
00001368 4841			 SWAP	   D1
0000136A 2F01			 MOVE.L	   D1,-(A7)
0000136C 4EB900000000		 JSR	   M.DYNTMB
00001372 204F			 MOVEA.L   A7,A0
00001374 3080			 MOVE.W	   D0,(A0)
00001376 48680002		 PEA	   2(A0)			         $20000137A 3F10			 MOVE.W	   (A0),-(A7)
0000137C 486EFE9C		 PEA	   -356(A6)			         $FFFFFE9C
00001380 3F00			 MOVE.W	   D0,-(A7)
00001382 4EB900000000		 JSR	   C.MVFF
00001388 2D48FFF6		 MOVE.L	   A0,-10(A6)			         $FFFFFFF6
0000138C 3D40FFF4		 MOVE.W	   D0,-12(A6)			         $FFFFFFF4
00001390 6100ED58		 BSR.L	   B.5(PC)			         WRITE_STRING = CODE.+
		      *							       LINE 25/29
00001394 2D6EFFE8FFE4		 MOVE.L	   -24(A6),-28(A6)		         LOCAL_NUM_CALLS  $FFF
0000139A 41EEFEBE		 LEA	   -322(A6),A0			         $FFFFFEBE
0000139E 2D48FFE0		 MOVE.L	   A0,-32(A6)			         $FFFFFFE0
000013A2 6100FCCA		 BSR.L	   B.6(PC)			         CONVERT_DECIMAL = COD
000013A6 302EFEBE		 MOVE.W	   -322(A6),D0			         $FFFFFEBE
000013AA D07C0018		 ADD.W	   #24,D0			         $18
000013AE 486EFE9C		 PEA	   -356(A6)			         $FFFFFE9C
000013B2 7222			 MOVEQ	   #34,D1			         $22
000013B4 3F01			 MOVE.W	   D1,-(A7)
000013B6 487AFD52		 PEA	   K.27(PC)			         CODE.+$110A
000013BA 7218			 MOVEQ	   #24,D1			         $18
000013BC 3F01			 MOVE.W	   D1,-(A7)
000013BE 4EB900000000		 JSR	   C.MVFF
000013C4 486EFEC0		 PEA	   -320(A6)			         $FFFFFEC0
000013C8 3F2EFEBE		 MOVE.W	   -322(A6),-(A7)		         $FFFFFEBE
000013CC 4EB900000000		 JSR	   C.MVFR
000013D2 3200			 MOVE.W	   D0,D1
000013D4 5441			 ADDQ.W	   #2,D1			         $2
000013D6 4841			 SWAP	   D1
000013D8 4241			 CLR.W	   D1
000013DA 4841			 SWAP	   D1
000013DC 2F01			 MOVE.L	   D1,-(A7)
000013DE 4EB900000000		 JSR	   M.DYNTMB
000013E4 204F			 MOVEA.L   A7,A0
000013E6 3080			 MOVE.W	   D0,(A0)
000013E8 48680002		 PEA	   2(A0)			         $2
000013EC 3F10			 MOVE.W	   (A0),-(A7)
000013EE 486EFE9C		 PEA	   -356(A6)			         $FFFFFE9C
000013F2 3F00			 MOVE.W	   D0,-(A7)
000013F4 4EB900000000		 JSR	   C.MVFF
000013FA 2D48FFF6		 MOVE.L	   A0,-10(A6)			         $FFFFFFF6
000013FE 3D40FFF4		 MOVE.W	   D0,-12(A6)			         $FFFFFFF4
00001402 6100ECE6		 BSR.L	   B.5(PC)			         WRITE_STRING = CODE.+
		      *							       LINE 25/30
00001406 2F2EFFE8		 MOVE.L	   -24(A6),-(A7)		         LOCAL_NUM_CALLS
0000140A 2F2EFFEC		 MOVE.L	   -20(A6),-(A7)		         LOCAL_NUM_NAMES
0000140E 4EB900000000		 JSR	   G.I4DIV00001414 2D5FFFE4		 MOVE.L	   (A7)+,-28(A6)		         $FFFFFFE4
00001418 41EEFEBE		 LEA	   -322(A6),A0			         $FFFFFEBE
0000141C 2D48FFE0		 MOVE.L	   A0,-32(A6)			         $FFFFFFE0
00001420 6100FC4C		 BSR.L	   B.6(PC)			         CONVERT_DECIMAL = COD
00001424 302EFEBE		 MOVE.W	   -322(A6),D0			         $FFFFFEBE
00001428 D07C0015		 ADD.W	   #21,D0			         $15
0000142C 486EFE9E		 PEA	   -354(A6)			         $FFFFFE9E
00001430 721F			 MOVEQ	   #31,D1			         $1F
00001432 3F01			 MOVE.W	   D1,-(A7)
00001434 487AFCEC		 PEA	   K.28(PC)			         CODE.+$1122
00001438 7215			 MOVEQ	   #21,D1			         $15
0000143A 3F01			 MOVE.W	   D1,-(A7)
0000143C 4EB900000000		 JSR	   C.MVFF
00001442 486EFEC0		 PEA	   -320(A6)			         $FFFFFEC0
00001446 3F2EFEBE		 MOVE.W	   -322(A6),-(A7)		         $FFFFFEBE
0000144A 4EB900000000		 JSR	   C.MVFR
00001450 3200			 MOVE.W	   D0,D1
00001452 5441			 ADDQ.W	   #2,D1			         $2
00001454 4841			 SWAP	   D1
00001456 4241			 CLR.W	   D1
00001458 4841			 SWAP	   D1
0000145A 2F01			 MOVE.L	   D1,-(A7)
0000145C 4EB900000000		 JSR	   M.DYNTMB
00001462 204F			 MOVEA.L   A7,A0
00001464 3080			 MOVE.W	   D0,(A0)
00001466 48680002		 PEA	   2(A0)			         $2
0000146A 3F10			 MOVE.W	   (A0),-(A7)
0000146C 486EFE9E		 PEA	   -354(A6)			         $FFFFFE9E
00001470 3F00			 MOVE.W	   D0,-(A7)
00001472 4EB900000000		 JSR	   C.MVFF
00001478 2D48FFF6		 MOVE.L	   A0,-10(A6)			         $FFFFFFF6
0000147C 3D40FFF4		 MOVE.W	   D0,-12(A6)			         $FFFFFFF4
00001480 6100EC68		 BSR.L	   B.5(PC)			         WRITE_STRING = CODE.+
		      *							       LINE 25/32
00001484 2E6EFE98		 MOVEA.L   X.28.1(A6),A7
00001488 4E75			 RTS	   
0000148A 4D3638303030 K.29	 DC.B	   'M68000 Runtime call statistics program, Version 1.0'
000014BD 00000001		 DS.B	   1
000014BE 496E70757420 K.30	 DC.B	   'Input file: '
000014CA	      K.31
000014CA 2E524F20     K.32	 DC.B	   '.RO '
000014CE 42616420696E K.33	 DC.B	   'Bad input file.'
000014DD 00000001		 DS.B	   1
000014DE 4F7574707574 K.34	 DC.B	   'Output file: '
000014EB 00000001		 DS.B	   1000014EC 2E4C5320     K.35	 DC.B	   '.LS '
000014F0 426164206F75 K.36	 DC.B	   'Bad output file.'
00001500 4D3638303030 K.37	 DC.B	   'M68000 Runtime call statistics for file: '
00001529 00000001		 DS.B	   1
0000152A	      K.38
		      *
		      *		 Begin subroutine GET_FILE_NAMES
		      *
0000152A 2D4FFE4E     B.29	 MOVE.L	   A7,X.29.1(A6)
		      *							       LINE 26/8
		      *							       LINE 26/9
0000152E 202D0000     L.29.1	 MOVE.L	   TTYOUTPUT(A5),D0		         TTYOUTPUT
00001532 4A80			 TST.L	   D0
00001534 6606			 BNE.S	   X.29.3(PC)
00001536 4EB900000000		 JSR	   E.FILE
0000153C 7233	      X.29.3	 MOVEQ	   #51,D1			         $33
0000153E 3F01			 MOVE.W	   D1,-(A7)
00001540 7204			 MOVEQ	   #4,D1			         $4
00001542 3F01			 MOVE.W	   D1,-(A7)
00001544 487AFF44		 PEA	   K.29(PC)			         CODE.+$148A
00001548 2F00			 MOVE.L	   D0,-(A7)
0000154A 4EB900000000		 JSR	   T.WRITE
00001550 2F00			 MOVE.L	   D0,-(A7)
00001552 4EB900000000		 JSR	   T.WRTLN
		      *							       LINE 26/10
00001558 202D0000		 MOVE.L	   TTYOUTPUT(A5),D0		         TTYOUTPUT
0000155C 4A80			 TST.L	   D0
0000155E 6606			 BNE.S	   X.29.4(PC)
00001560 4EB900000000		 JSR	   E.FILE
00001566 720C	      X.29.4	 MOVEQ	   #12,D1			         $C
00001568 3F01			 MOVE.W	   D1,-(A7)
0000156A 7204			 MOVEQ	   #4,D1			         $4
0000156C 3F01			 MOVE.W	   D1,-(A7)
0000156E 487AFF4E		 PEA	   K.30(PC)			         CODE.+$14BE
00001572 2F00			 MOVE.L	   D0,-(A7)
00001574 4EB900000000		 JSR	   T.WRITE
		      *							       LINE 26/11
0000157A 202D0000		 MOVE.L	   TTYOUTPUT(A5),D0		         TTYOUTPUT
0000157E 4A80			 TST.L	   D0
00001580 6606			 BNE.S	   X.29.5(PC)
00001582 4EB900000000		 JSR	   E.FILE
00001588 2F00	      X.29.5	 MOVE.L	   D0,-(A7)
0000158A 4EB900000000		 JSR	   T.BREAK
		      *							       LINE 26/12
00001590 202D0000		 MOVE.L	   TTY(A5),D0			         TTY00001594 4A80			 TST.L	   D0
00001596 6606			 BNE.S	   X.29.6(PC)
00001598 4EB900000000		 JSR	   E.FILE
0000159E 2F00	      X.29.6	 MOVE.L	   D0,-(A7)
000015A0 4EB900000000		 JSR	   T.READLN
		      *							       LINE 26/13
000015A6 202D0000		 MOVE.L	   TTY(A5),D0			         TTY
000015AA 4A80			 TST.L	   D0
000015AC 6606			 BNE.S	   X.29.7(PC)
000015AE 4EB900000000		 JSR	   E.FILE
000015B4 7224	      X.29.7	 MOVEQ	   #36,D1			         $24
000015B6 3F01			 MOVE.W	   D1,-(A7)
000015B8 720B			 MOVEQ	   #11,D1			         $B
000015BA 3F01			 MOVE.W	   D1,-(A7)
000015BC 486EFFCE		 PEA	   -50(A6)			         INPUT_FILE_NAME
000015C0 2F00			 MOVE.L	   D0,-(A7)
000015C2 4EB900000000		 JSR	   T.READ
		      *							       LINE 26/14
000015C8 487AFF00		 PEA	   K.31(PC)			         CODE.+$14CA
000015CC 4267			 CLR.W	   -(A7)
000015CE 486EFFD0		 PEA	   -50+2(A6)			         INPUT_FILE_NAME
000015D2 3F2EFFCE		 MOVE.W	   -50(A6),-(A7)		         INPUT_FILE_NAME
000015D6 4EB900000000		 JSR	   C.CPFF
000015DC 6606			 BNE.S	   L.29.3(PC)
		      *							       LINE 26/15
000015DE 4EB900000000 L.29.2	 JSR	   M.STOP
		      *							       LINE 26/16
000015E4 302EFFCE     L.29.3	 MOVE.W	   -50(A6),D0			         INPUT_FILE_NAME
000015E8 5840			 ADDQ.W	   #4,D0			         $4
000015EA 486EFE9E		 PEA	   -354(A6)			         $FFFFFE9E
000015EE 7228			 MOVEQ	   #40,D1			         $28
000015F0 3F01			 MOVE.W	   D1,-(A7)
000015F2 487AFED6		 PEA	   K.32(PC)			         CODE.+$14CA
000015F6 7204			 MOVEQ	   #4,D1			         $4
000015F8 3F01			 MOVE.W	   D1,-(A7)
000015FA 4EB900000000		 JSR	   C.MVFF
00001600 486EFFD0		 PEA	   -50+2(A6)			         INPUT_FILE_NAME
00001604 3F2EFFCE		 MOVE.W	   -50(A6),-(A7)		         INPUT_FILE_NAME
00001608 4EB900000000		 JSR	   C.MVFR
0000160E 3F3C0100		 MOVE.W	   #256,-(A7)			         $100
00001612 486EFE9E		 PEA	   -354(A6)			         $FFFFFE9E
00001616 3F00			 MOVE.W	   D0,-(A7)
00001618 3F3C0429		 MOVE.W	   #1065,-(A7)			         $429
0000161C 4EB900000000		 JSR	   Y.INIT
00001622 2B5F0110		 MOVE.L	   (A7)+,STATIC.+272(A5)	         INPUT_FILE		      *							       LINE 26/17
00001626 202D0110		 MOVE.L	   STATIC.+272(A5),D0		         INPUT_FILE
0000162A 4A80			 TST.L	   D0
0000162C 6606			 BNE.S	   X.29.8(PC)
0000162E 4EB900000000		 JSR	   E.FILE
00001634 2F00	      X.29.8	 MOVE.L	   D0,-(A7)
00001636 4EB900000000		 JSR	   I.FILSTA
0000163C 4A5F			 TST.W	   (A7)+
0000163E 672E			 BEQ.S	   L.29.5(PC)
		      *							       LINE 26/18
00001640 3D7C000FFEB4 L.29.4	 MOVE.W	   #15,-332(A6)			         $F  $FFFFFEB4
00001646 486EFEB6		 PEA	   -330(A6)			         $FFFFFEB6
0000164A 3F2EFEB4		 MOVE.W	   -332(A6),-(A7)		         $FFFFFEB4
0000164E 487AFE7E		 PEA	   K.33(PC)			         CODE.+$14CE
00001652 700F			 MOVEQ	   #15,D0			         $F
00001654 3F00			 MOVE.W	   D0,-(A7)
00001656 4EB900000000		 JSR	   C.MVFF
0000165C 41EEFEB4		 LEA	   -332(A6),A0			         $FFFFFEB4
00001660 2D48FFFC		 MOVE.L	   A0,-4(A6)			         $FFFFFFFC
00001664 3D7C000FFFFA		 MOVE.W	   #15,-6(A6)			         $F  $FFFFFFFA
0000166A 6100EC0C		 BSR.L	   B.9(PC)			         ERROR = CODE.+$278
		      *							       LINE 26/19
0000166E 202D0000     L.29.5	 MOVE.L	   TTYOUTPUT(A5),D0		         TTYOUTPUT
00001672 4A80			 TST.L	   D0
00001674 6606			 BNE.S	   X.29.9(PC)
00001676 4EB900000000		 JSR	   E.FILE
0000167C 720D	      X.29.9	 MOVEQ	   #13,D1			         $D
0000167E 3F01			 MOVE.W	   D1,-(A7)
00001680 7204			 MOVEQ	   #4,D1			         $4
00001682 3F01			 MOVE.W	   D1,-(A7)
00001684 487AFE58		 PEA	   K.34(PC)			         CODE.+$14DE
00001688 2F00			 MOVE.L	   D0,-(A7)
0000168A 4EB900000000		 JSR	   T.WRITE
		      *							       LINE 26/20
00001690 202D0000		 MOVE.L	   TTYOUTPUT(A5),D0		         TTYOUTPUT
00001694 4A80			 TST.L	   D0
00001696 6606			 BNE.S	   X.29.10(PC)
00001698 4EB900000000		 JSR	   E.FILE
0000169E 2F00	      X.29.10	 MOVE.L	   D0,-(A7)
000016A0 4EB900000000		 JSR	   T.BREAK
		      *							       LINE 26/21
000016A6 202D0000		 MOVE.L	   TTY(A5),D0			         TTY
000016AA 4A80			 TST.L	   D0
000016AC 6606			 BNE.S	   X.29.11(PC)
000016AE 4EB900000000		 JSR	   E.FILE000016B4 2F00	      X.29.11	 MOVE.L	   D0,-(A7)
000016B6 4EB900000000		 JSR	   T.READLN
		      *							       LINE 26/22
000016BC 202D0000		 MOVE.L	   TTY(A5),D0			         TTY
000016C0 4A80			 TST.L	   D0
000016C2 6606			 BNE.S	   X.29.12(PC)
000016C4 4EB900000000		 JSR	   E.FILE
000016CA 7224	      X.29.12	 MOVEQ	   #36,D1			         $24
000016CC 3F01			 MOVE.W	   D1,-(A7)
000016CE 720B			 MOVEQ	   #11,D1			         $B
000016D0 3F01			 MOVE.W	   D1,-(A7)
000016D2 486EFFA8		 PEA	   -88(A6)			         OUTPUT_FILE_NAME
000016D6 2F00			 MOVE.L	   D0,-(A7)
000016D8 4EB900000000		 JSR	   T.READ
		      *							       LINE 26/23
000016DE 7020			 MOVEQ	   #32,D0			         $20
000016E0 1F00			 MOVE.B	   D0,-(A7)
000016E2 486EFFAA		 PEA	   -88+2(A6)			         OUTPUT_FILE_NAME
000016E6 3F2EFFA8		 MOVE.W	   -88(A6),-(A7)		         OUTPUT_FILE_NAME
000016EA 4EB900000000		 JSR	   C.CPFC
000016F0 67000100		 BEQ.L	   L.29.9(PC)
		      *							       LINE 26/23 (2)
		      *							       LINE 26/25
000016F4 302EFFA8     L.29.6	 MOVE.W	   -88(A6),D0			         OUTPUT_FILE_NAME
000016F8 5840			 ADDQ.W	   #4,D0			         $4
000016FA 486EFE9E		 PEA	   -354(A6)			         $FFFFFE9E
000016FE 7228			 MOVEQ	   #40,D1			         $28
00001700 3F01			 MOVE.W	   D1,-(A7)
00001702 487AFDE8		 PEA	   K.35(PC)			         CODE.+$14EC
00001706 7204			 MOVEQ	   #4,D1			         $4
00001708 3F01			 MOVE.W	   D1,-(A7)
0000170A 4EB900000000		 JSR	   C.MVFF
00001710 486EFFAA		 PEA	   -88+2(A6)			         OUTPUT_FILE_NAME
00001714 3F2EFFA8		 MOVE.W	   -88(A6),-(A7)		         OUTPUT_FILE_NAME
00001718 4EB900000000		 JSR	   C.MVFR
0000171E 486EFE9E		 PEA	   -354(A6)			         $FFFFFE9E
00001722 3F00			 MOVE.W	   D0,-(A7)
00001724 7032			 MOVEQ	   #50,D0			         $32
00001726 3F00			 MOVE.W	   D0,-(A7)
00001728 4EB900000000		 JSR	   T.REWRIT
0000172E 2B5F0114		 MOVE.L	   (A7)+,STATIC.+276(A5)	         OUTPUT_FILE
		      *							       LINE 26/26
00001732 4EB900000000		 JSR	   I.GENSTA
00001738 4A5F			 TST.W	   (A7)+
0000173A 672E			 BEQ.S	   L.29.8(PC)		      *							       LINE 26/27
0000173C 3D7C0010FEB4 L.29.7	 MOVE.W	   #16,-332(A6)			         $10  $FFFFFEB4
00001742 486EFEB6		 PEA	   -330(A6)			         $FFFFFEB6
00001746 3F2EFEB4		 MOVE.W	   -332(A6),-(A7)		         $FFFFFEB4
0000174A 487AFDA4		 PEA	   K.36(PC)			         CODE.+$14F0
0000174E 7010			 MOVEQ	   #16,D0			         $10
00001750 3F00			 MOVE.W	   D0,-(A7)
00001752 4EB900000000		 JSR	   C.MVFF
00001758 41EEFEB4		 LEA	   -332(A6),A0			         $FFFFFEB4
0000175C 2D48FFFC		 MOVE.L	   A0,-4(A6)			         $FFFFFFFC
00001760 3D7C0010FFFA		 MOVE.W	   #16,-6(A6)			         $10  $FFFFFFFA
00001766 6100EB10		 BSR.L	   B.9(PC)			         ERROR = CODE.+$278
		      *							       LINE 26/28
0000176A 7000	      L.29.8	 MOVEQ	   #0,D0			         $0
0000176C 1B400001		 MOVE.B	   D0,STATIC.+1(A5)		         TTY_FLAG
		      *							       LINE 26/38
00001770 2F2D0110		 MOVE.L	   STATIC.+272(A5),-(A7)	         INPUT_FILE
00001774 486EFEA0		 PEA	   -352(A6)			         $FFFFFEA0
00001778 4EB900000000		 JSR	   I.FILNAM			         FILENAME
0000177E 302EFEA0		 MOVE.W	   -352(A6),D0			         $FFFFFEA0
00001782 D07C0029		 ADD.W	   #41,D0			         $29
00001786 486EFE52		 PEA	   -430(A6)			         $FFFFFE52
0000178A 724D			 MOVEQ	   #77,D1			         $4D
0000178C 3F01			 MOVE.W	   D1,-(A7)
0000178E 487AFD70		 PEA	   K.37(PC)			         CODE.+$1500
00001792 7229			 MOVEQ	   #41,D1			         $29
00001794 3F01			 MOVE.W	   D1,-(A7)
00001796 4EB900000000		 JSR	   C.MVFF
0000179C 486EFEA2		 PEA	   -350(A6)			         $FFFFFEA2
000017A0 3F2EFEA0		 MOVE.W	   -352(A6),-(A7)		         $FFFFFEA0
000017A4 4EB900000000		 JSR	   C.MVFR
000017AA 3200			 MOVE.W	   D0,D1
000017AC 5441			 ADDQ.W	   #2,D1			         $2
000017AE 4841			 SWAP	   D1
000017B0 4241			 CLR.W	   D1
000017B2 4841			 SWAP	   D1
000017B4 2F01			 MOVE.L	   D1,-(A7)
000017B6 4EB900000000		 JSR	   M.DYNTMB
000017BC 204F			 MOVEA.L   A7,A0
000017BE 3080			 MOVE.W	   D0,(A0)
000017C0 48680002		 PEA	   2(A0)			         $2
000017C4 3F10			 MOVE.W	   (A0),-(A7)
000017C6 486EFE52		 PEA	   -430(A6)			         $FFFFFE52
000017CA 3F00			 MOVE.W	   D0,-(A7)
000017CC 4EB900000000		 JSR	   C.MVFF000017D2 2D48FFF6		 MOVE.L	   A0,-10(A6)			         $FFFFFFF6
000017D6 3D40FFF4		 MOVE.W	   D0,-12(A6)			         $FFFFFFF4
000017DA 6100E90E		 BSR.L	   B.5(PC)			         WRITE_STRING = CODE.+
		      *							       LINE 26/40
000017DE 426EFEC4		 CLR.W	   -316(A6)			         $FFFFFEC4
000017E2 41EEFEC4		 LEA	   -316(A6),A0			         $FFFFFEC4
000017E6 2D48FFF6		 MOVE.L	   A0,-10(A6)			         $FFFFFFF6
000017EA 426EFFF4		 CLR.W	   -12(A6)			         $FFFFFFF4
000017EE 6100E8FA		 BSR.L	   B.5(PC)			         WRITE_STRING = CODE.+
000017F2 2E6EFE4E     L.29.9	 MOVEA.L   X.29.1(A6),A7
		      *							       LINE 26/42
		      *							       LINE 26/43
000017F6 202D0110		 MOVE.L	   STATIC.+272(A5),D0		         INPUT_FILE
000017FA 4A80			 TST.L	   D0
000017FC 6606			 BNE.S	   X.29.13(PC)
000017FE 4EB900000000		 JSR	   E.FILE
00001804 2040	      X.29.13	 MOVEA.L   D0,A0
00001806 2050			 MOVEA.L   (A0),A0
00001808 43ED0010		 LEA	   STATIC.+16(A5),A1		         INPUT_RECORD
0000180C 721F			 MOVEQ	   #31,D1			         $1F
0000180E 22D8	      X.29.14	 MOVE.L	   (A0)+,(A1)+
00001810 22D8			 MOVE.L	   (A0)+,(A1)+
00001812 51C9FFFA		 DBF	   D1,X.29.14(PC)
00001816 2F00			 MOVE.L	   D0,-(A7)
00001818 4EB900000000		 JSR	   Y.GET
		      *							       LINE 26/44
0000181E 4E75			 RTS	   
		      *
		      *		 Begin program STAT
		      *
				 XDEF	   M.START 
00001820	      M.START 
00001820 7010	      B.1	 MOVEQ	   #16,D0			         $10
00001822 2F00			 MOVE.L	   D0,-(A7)
00001824 610C			 BSR.S	   X.1.1(PC)
00001826 00000000		 DC.L	   C.1
0000182A 0000			 DC.W	   0				         $0
0000182C 0004			 DC.W	   4				       String length word
0000182E 53544154		 DC.B	   'STAT'
00001832 203CFFFFFE4A X.1.1	 MOVE.L	   #T.1-4,D0			         -434
00001838 4EB900000000		 JSR	   M.ENTRY
		      *							       LINE 27/2
		      *							       LINE 27/3
0000183E 6100E81A     L.1.1	 BSR.L	   B.4(PC)			         INITIALIZE = CODE.+$5
		      *							       LINE 27/400001842 6100FCE6		 BSR.L	   B.29(PC)			         GET_FILE_NAMES = CODE
		      *							       LINE 27/5
00001846 6100F716		 BSR.L	   B.27(PC)			         PROCESS_INPUT = CODE.
		      *							       LINE 27/6
0000184A 6100F8EC		 BSR.L	   B.28(PC)			         PRINT_ESDID_STATISTI 
		      *							       LINE 27/7
0000184E 4EB900000000		 JSR	   M.STOP
				 XREF	   T.OPEN
				 XREF	   TTY
				 XREF	   T.REWRIT
				 XREF	   TTYOUTPU
				 XREF	   H.NEW
				 XREF	   E.PTR
				 XREF	   E.FILE
				 XREF	   T.WRITE
				 XREF	   T.WRTLN
				 XREF	   T.PAGE
				 XREF	   M.DYNTMB
				 XREF	   C.MVFF
				 XREF	   C.MVFR
				 XREF	   M.STOP
				 XREF	   E.INDEX
				 XREF	   I.EOF
				 XREF	   Y.GET
				 XREF	   E.VALUE
				 XREF	   C.MVCR
				 XREF	   G.I4PWR
				 XREF	   G.I4MULT
				 XREF	   E.CASE
				 XREF	   C.CPFF
				 XREF	   I.PTSTRV
				 XREF	   G.I4DIV
				 XREF	   T.BREAK
				 XREF	   T.READLN
				 XREF	   T.READ
				 XREF	   Y.INIT
				 XREF	   I.FILSTA
				 XREF	   C.CPFC
				 XREF	   I.GENSTA
				 XREF	   I.FILNAM
				 XREF	   M.ENTRY
		      *
		      *		 Code area:      000015F2 bytes (5618 decimal)
		      *		 Constant area:  00000262 bytes (610 decimal)
		      *		 Static area:    0000100C bytes (4108 decimal)		      *
	 00000000		 END
    & `