    P R O G R A M   T 5 8 4 1 0 		COBOL 100A(370001)	 9-FEB-78  12:27		PAGE 1
    T58410.CBL    04-NOV-66  20:23

    0001   00010    IDENTIFICATION DIVISION.
    0002   00020    PROGRAM-ID. T58410.
    0003   00030  
    0004   00040    DATA DIVISION.
    0005   00050  
    0006   00060    WORKING-STORAGE SECTION.
    0007   00070  
    0008   00080    77 NUM COMP-1.
    0009   00090    77 ZOOT PIC Z(9).9(9) DISPLAY-7.
    0010   00100  
    0011   00110    PROCEDURE DIVISION.
    0012   00120  
    0013   00130    L1.	MOVE 1 TO NUM.
    0014   00140    L2.	MOVE NUM TO ZOOT.
    0015   00150    L3.	DISPLAY ZOOT.
    0016   00152    L4.	MOVE 1 TO ZOOT.
    0017   00154    L5.	DISPLAY ZOOT.
    0018   00160    L6.	MOVE 7594 TO NUM.
    0019   00170    L7.	MOVE NUM TO ZOOT.
    0020   00180    L8.	DISPLAY ZOOT.
    0021   00182    L9.	MOVE 7594 TO ZOOT.
    0022   00184    L10.	DISPLAY ZOOT.
    0023   00190    L11.	MOVE 63126 TO NUM.
    0024   00200    L12.	MOVE NUM TO ZOOT.
    0025   00210    L13.	DISPLAY ZOOT.
    0026   00212    L14.	MOVE 63126 TO ZOOT.
    0027   00214    L15.	DISPLAY ZOOT.
    0028   00220    L16.	MOVE 126.5 TO NUM.
    0029   00230    L17.	MOVE NUM TO ZOOT.
    0030   00240    L18.	DISPLAY ZOOT.
    0031   00250    L19.	MOVE 126.5 TO ZOOT.
    0032   00260    L20.	DISPLAY ZOOT.
    0033   00270    L21.
    0034   00280    L22.	STOP RUN.    P R O G R A M   T 5 8 4 1 0 		COBOL 100A(370001)	 9-FEB-78  12:27		PAGE A-1
    T58410.CBL    04-NOV-66  20:23


000000'	000000  000000 	%FILES:	XWD	0,0
000001'	000000  000000 	%USES:	XWD	0,0
000002'	000000' 000457'	%SEGWD:	XWD	0,457
000003'	000000' 000057'	%ALTER:	XWD	0,57
000004'	000000  000000 	%OVRFN:	OCT	0
000005'	000000  000016 	%POINT:	"."
000006'	000000  000014 	%COMMA:	","
000007'	000000  000004 	%MONEY:	"$"
000010'	000000  777777 	%MEMRY:	OCT	777777
000011'	000000  000457'	%NM:	EXP	457
000012'	000750' 000554'	%DT:	XWD	750,554
000013'	000000  000610'	%PR:	EXP	610
000014'	010001  370001 	%COBVR:	OCT	COBOL.VERSION
000015'	200000  632000 	%COBSW:	OCT	COMPILER.ASSEMBLY.SWITCHES
000016'	000000  000200 	%PUSHL:	OCT	200
000017'	000000  000000 	%SURRT: XWD 0,0
000020'	000000  000000 	%SUEQT: XWD 0,0
000021'	000000  000000 	%SUFBT: XWD 0,0




			%PARAM:

000055'	000000  000000 		OCT	0
000056'	000000  000000 		OCT	0
    P R O G R A M   T 5 8 4 1 0 		COBOL 100A(370001)	 9-FEB-78  12:27		PAGE A-2
    T58410.CBL    04-NOV-66  20:23


000057'	265700  000000 	START.:	JSP	16,COBST.
000060'	201040  000073'		MOVEI	1,%SELOT
000061'	047040  000040 		CALLI	1,40
000062'	254200  000061'		JRST	4,.
000063'	201700  000326'		MOVEI	16,%LIT00
000064'	265740  400010 		JSP	17,400010	;SELOTS
000065'	265600  000000 		JSP	14,C.RSET
000066'	000000  000103'		XWD	0,T58410
000067'	350000  000055'		AOS	%PARAM
000070'	265700  000000 		JSP	16,CBDDT.
000071'	000000  000103'		XWD	0,T58410
000072'	254000  000116'		JRST	L1

000073'	637163  000000 	%SELOT:	SIXBIT	"SYS"
000074'	634554  576463 		SIXBIT	"SELOTS"
000075'	635062  000000 		SIXBIT	"SHR"
000076'	000000  000000 		Z
000077'	000000  000000 		Z
000100'	000000  000000 		Z
    P R O G R A M   T 5 8 4 1 0 		COBOL 100A(370001)	 9-FEB-78  12:27		PAGE A-3
    T58410.CBL    04-NOV-66  20:23

000101'	000000' 000000 		XWD	%FILES,0
000102'				SIXBIT	"T58410"

			ENTRY	T58410
			T58410:
000103'	334000  000000 		SKIPA	0,0
000104'	000330' 000000'		XWD	%LIT00+5,%FILES
000105'	332000  000055'		SKIPE	%PARAM
000106'	260740  000000 		PUSHJ	17,ILLC.
000107'	476000  000055'		SETOM	%PARAM
000110'	202700  000056'		MOVEM	16,%PARAM+1
000111'	201700  000103'		MOVEI	16,T58410
000112'	260740  000000 		PUSHJ	17,PUTF.
000113'	260740  000000 		PUSHJ	17,C.TRCE
000114'	002002  000000 		XWD	2002,0
000115'				SIXBIT	"T58410"

			L1:

000116'	260740  000113'		PUSHJ	17,C.TRCE
000117'	000001  000011 		XWD	1,11
000120'	200000  000331'		MOVE	0,%LIT00+6
000121'	202000  000050'		MOVEM	0,NUM

			L2:

000122'	260740  000116'		PUSHJ	17,C.TRCE
000123'	000001  000015 		XWD	1,15
000124'	200000  000050'		MOVE	0,NUM
000125'	164000  000332'		FMPR	0,%LIT00+7
000126'	201700  000000 		MOVEI	16,0
000127'	260740  000000 		PUSHJ	17,FIX.
000130'	551700  000333'		HRRZI	16,%LIT00+10
000131'	260740  000000 		PUSHJ	17,PD7.
000132'	201700  000337'		MOVEI	16,%LIT00+14
000133'	260740  000000 		PUSHJ	17,EDIT.U
000134'	440000  000334'		XWD	440000,%LIT00+11

			L3:

000135'	260740  000122'		PUSHJ	17,C.TRCE
000136'	000001  000021 		XWD	1,21
000137'	201700  000341'		MOVEI	16,%LIT00+16
000140'	260740  000000 		PUSHJ	17,DSPLY.

			L4:

000141'	260740  000135'		PUSHJ	17,C.TRCE
000142'	000001  000025 		XWD	1,25
000143'	551700  000346'		HRRZI	16,%LIT00+23
000144'	260740  000000 		PUSHJ	17,GD7.
000145'	551700  000347'		HRRZI	16,%LIT00+24
000146'	260740  000131'		PUSHJ	17,PD7.
000147'	201700  000353'		MOVEI	16,%LIT00+30
000150'	260740  000133'		PUSHJ	17,EDIT.U
000151'	440000  000350'		XWD	440000,%LIT00+25    P R O G R A M   T 5 8 4 1 0 		COBOL 100A(370001)	 9-FEB-78  12:27		PAGE A-4
    T58410.CBL    04-NOV-66  20:23


			L5:

000152'	260740  000141'		PUSHJ	17,C.TRCE
000153'	000001  000031 		XWD	1,31
000154'	201700  000355'		MOVEI	16,%LIT00+32
000155'	260740  000140'		PUSHJ	17,DSPLY.

			L6:

000156'	260740  000152'		PUSHJ	17,C.TRCE
000157'	000001  000035 		XWD	1,35
000160'	200000  000356'		MOVE	0,%LIT00+33
000161'	202000  000050'		MOVEM	0,NUM

			L7:

000162'	260740  000156'		PUSHJ	17,C.TRCE
000163'	000001  000041 		XWD	1,41
000164'	200000  000050'		MOVE	0,NUM
000165'	164000  000332'		FMPR	0,%LIT00+7
000166'	201700  000000 		MOVEI	16,0
000167'	260740  000127'		PUSHJ	17,FIX.
000170'	551700  000357'		HRRZI	16,%LIT00+34
000171'	260740  000146'		PUSHJ	17,PD7.
000172'	201700  000363'		MOVEI	16,%LIT00+40
000173'	260740  000150'		PUSHJ	17,EDIT.U
000174'	440000  000360'		XWD	440000,%LIT00+35

			L8:

000175'	260740  000162'		PUSHJ	17,C.TRCE
000176'	000001  000045 		XWD	1,45
000177'	201700  000365'		MOVEI	16,%LIT00+42
000200'	260740  000155'		PUSHJ	17,DSPLY.

			L9:

000201'	260740  000175'		PUSHJ	17,C.TRCE
000202'	000001  000051 		XWD	1,51
000203'	551700  000372'		HRRZI	16,%LIT00+47
000204'	260740  000144'		PUSHJ	17,GD7.
000205'	551700  000373'		HRRZI	16,%LIT00+50
000206'	260740  000171'		PUSHJ	17,PD7.
000207'	201700  000377'		MOVEI	16,%LIT00+54
000210'	260740  000173'		PUSHJ	17,EDIT.U
000211'	440000  000374'		XWD	440000,%LIT00+51

			L10:

000212'	260740  000201'		PUSHJ	17,C.TRCE
000213'	000001  000055 		XWD	1,55
000214'	201700  000401'		MOVEI	16,%LIT00+56
000215'	260740  000200'		PUSHJ	17,DSPLY.

			L11:    P R O G R A M   T 5 8 4 1 0 		COBOL 100A(370001)	 9-FEB-78  12:27		PAGE A-5
    T58410.CBL    04-NOV-66  20:23


000216'	260740  000212'		PUSHJ	17,C.TRCE
000217'	000001  000061 		XWD	1,61
000220'	200000  000402'		MOVE	0,%LIT00+57
000221'	202000  000050'		MOVEM	0,NUM

			L12:

000222'	260740  000216'		PUSHJ	17,C.TRCE
000223'	000001  000065 		XWD	1,65
000224'	200000  000050'		MOVE	0,NUM
000225'	164000  000332'		FMPR	0,%LIT00+7
000226'	201700  000000 		MOVEI	16,0
000227'	260740  000167'		PUSHJ	17,FIX.
000230'	551700  000403'		HRRZI	16,%LIT00+60
000231'	260740  000206'		PUSHJ	17,PD7.
000232'	201700  000407'		MOVEI	16,%LIT00+64
000233'	260740  000210'		PUSHJ	17,EDIT.U
000234'	440000  000404'		XWD	440000,%LIT00+61

			L13:

000235'	260740  000222'		PUSHJ	17,C.TRCE
000236'	000001  000071 		XWD	1,71
000237'	201700  000411'		MOVEI	16,%LIT00+66
000240'	260740  000215'		PUSHJ	17,DSPLY.

			L14:

000241'	260740  000235'		PUSHJ	17,C.TRCE
000242'	000001  000075 		XWD	1,75
000243'	551700  000416'		HRRZI	16,%LIT00+73
000244'	260740  000204'		PUSHJ	17,GD7.
000245'	551700  000417'		HRRZI	16,%LIT00+74
000246'	260740  000231'		PUSHJ	17,PD7.
000247'	201700  000423'		MOVEI	16,%LIT00+100
000250'	260740  000233'		PUSHJ	17,EDIT.U
000251'	440000  000420'		XWD	440000,%LIT00+75

			L15:

000252'	260740  000241'		PUSHJ	17,C.TRCE
000253'	000001  000101 		XWD	1,101
000254'	201700  000425'		MOVEI	16,%LIT00+102
000255'	260740  000240'		PUSHJ	17,DSPLY.

			L16:

000256'	260740  000252'		PUSHJ	17,C.TRCE
000257'	000001  000105 		XWD	1,105
000260'	200000  000426'		MOVE	0,%LIT00+103
000261'	202000  000050'		MOVEM	0,NUM

			L17:

000262'	260740  000256'		PUSHJ	17,C.TRCE    P R O G R A M   T 5 8 4 1 0 		COBOL 100A(370001)	 9-FEB-78  12:27		PAGE A-6
    T58410.CBL    04-NOV-66  20:23

000263'	000001  000111 		XWD	1,111
000264'	200000  000050'		MOVE	0,NUM
000265'	164000  000332'		FMPR	0,%LIT00+7
000266'	201700  000000 		MOVEI	16,0
000267'	260740  000227'		PUSHJ	17,FIX.
000270'	551700  000427'		HRRZI	16,%LIT00+104
000271'	260740  000246'		PUSHJ	17,PD7.
000272'	201700  000433'		MOVEI	16,%LIT00+110
000273'	260740  000250'		PUSHJ	17,EDIT.U
000274'	440000  000430'		XWD	440000,%LIT00+105

			L18:

000275'	260740  000262'		PUSHJ	17,C.TRCE
000276'	000001  000115 		XWD	1,115
000277'	201700  000435'		MOVEI	16,%LIT00+112
000300'	260740  000255'		PUSHJ	17,DSPLY.

			L19:

000301'	260740  000275'		PUSHJ	17,C.TRCE
000302'	000001  000121 		XWD	1,121
000303'	551700  000442'		HRRZI	16,%LIT00+117
000304'	260740  000244'		PUSHJ	17,GD7.
000305'	551700  000443'		HRRZI	16,%LIT00+120
000306'	260740  000271'		PUSHJ	17,PD7.
000307'	201700  000447'		MOVEI	16,%LIT00+124
000310'	260740  000273'		PUSHJ	17,EDIT.U
000311'	440000  000444'		XWD	440000,%LIT00+121

			L20:

000312'	260740  000301'		PUSHJ	17,C.TRCE
000313'	000001  000125 		XWD	1,125
000314'	201700  000451'		MOVEI	16,%LIT00+126
000315'	260740  000300'		PUSHJ	17,DSPLY.

			L21:

000316'	260740  000312'		PUSHJ	17,C.TRCE
000317'	000001  000131 		XWD	1,131

			L22:

000320'	260740  000316'		PUSHJ	17,C.TRCE
000321'	000001  000135 		XWD	1,135
000322'	260740  000000 		PUSHJ	17,STOPR.

    P R O G R A M   T 5 8 4 1 0 		COBOL 100A(370001)	 9-FEB-78  12:27		PAGE A-7
    T58410.CBL    04-NOV-66  20:23

			%LIT00:

000323'				SIXBIT	"COBOL "
000324'	010001  370001 		OCT	10001370001
000325'	777776  000000 		OCT	777776000000
000326'	000000  000323'		XWD	0,%LIT00
000327'	000000  000324'		XWD	0,%LIT00+1
000330'	000000  000000 		OCT	0
000331'	201400  000000 		FLOAT	0.10000000E1
000332'	236734  654500 		FLOAT	0.10000000E10
000333'	440022  000044'		XWD	440022,%TEMP
000334'	104210  421042 		OCT	104210421042
000335'	442104  210421 		OCT	442104210421
000336'	076000  000000 		OCT	76000000000
000337'	440700  000044'		POINT	7,%TEMP
000340'	440700  000051'		POINT	7,ZOOT
000341'	442023  000051'		XWD	442023,ZOOT
000342'				ASCII	"000000001000000000\\"
000346'	444022  000342'		XWD	444022,%LIT00+17
000347'	440022  000044'		XWD	440022,%TEMP
000350'	104210  421042 		OCT	104210421042
000351'	442104  210421 		OCT	442104210421
000352'	076000  000000 		OCT	76000000000
000353'	440700  000044'		POINT	7,%TEMP
000354'	440700  000051'		POINT	7,ZOOT
000355'	442023  000051'		XWD	442023,ZOOT
000356'	215732  500000 		FLOAT	0.75940000E4
000357'	440022  000044'		XWD	440022,%TEMP
000360'	104210  421042 		OCT	104210421042
000361'	442104  210421 		OCT	442104210421
000362'	076000  000000 		OCT	76000000000
000363'	440700  000044'		POINT	7,%TEMP
000364'	440700  000051'		POINT	7,ZOOT
000365'	442023  000051'		XWD	442023,ZOOT
000366'				ASCII	"000007594000000000\\"
000372'	444022  000366'		XWD	444022,%LIT00+43
000373'	440022  000044'		XWD	440022,%TEMP
000374'	104210  421042 		OCT	104210421042
000375'	442104  210421 		OCT	442104210421
000376'	076000  000000 		OCT	76000000000
000377'	440700  000044'		POINT	7,%TEMP
000400'	440700  000051'		POINT	7,ZOOT
000401'	442023  000051'		XWD	442023,ZOOT
000402'	220755  130000 		FLOAT	0.63126000E5
000403'	440022  000044'		XWD	440022,%TEMP
000404'	104210  421042 		OCT	104210421042
000405'	442104  210421 		OCT	442104210421
000406'	076000  000000 		OCT	76000000000
000407'	440700  000044'		POINT	7,%TEMP
000410'	440700  000051'		POINT	7,ZOOT
000411'	442023  000051'		XWD	442023,ZOOT
000412'				ASCII	"000063126000000000\\"
000416'	444022  000412'		XWD	444022,%LIT00+67
000417'	440022  000044'		XWD	440022,%TEMP
000420'	104210  421042 		OCT	104210421042
000421'	442104  210421 		OCT	442104210421    P R O G R A M   T 5 8 4 1 0 		COBOL 100A(370001)	 9-FEB-78  12:27		PAGE A-8
    T58410.CBL    04-NOV-66  20:23

000422'	076000  000000 		OCT	76000000000
000423'	440700  000044'		POINT	7,%TEMP
000424'	440700  000051'		POINT	7,ZOOT
000425'	442023  000051'		XWD	442023,ZOOT
000426'	207772  000000 		FLOAT	0.12650000E3
000427'	440022  000044'		XWD	440022,%TEMP
000430'	104210  421042 		OCT	104210421042
000431'	442104  210421 		OCT	442104210421
000432'	076000  000000 		OCT	76000000000
000433'	440700  000044'		POINT	7,%TEMP
000434'	440700  000051'		POINT	7,ZOOT
000435'	442023  000051'		XWD	442023,ZOOT
000436'				ASCII	"000000126500000000\\"
000442'	444022  000436'		XWD	444022,%LIT00+113
000443'	440022  000044'		XWD	440022,%TEMP
000444'	104210  421042 		OCT	104210421042
000445'	442104  210421 		OCT	442104210421
000446'	076000  000000 		OCT	76000000000
000447'	440700  000044'		POINT	7,%TEMP
000450'	440700  000051'		POINT	7,ZOOT
000451'	442023  000051'		XWD	442023,ZOOT

				END	START.


PROGRAM BREAK IS 000457


NO ERRORS DETECTED
  